---
triple:          'x86_64-apple-darwin'
binary-path:     main
relocations:
  - { offsetInCU: 0x4A14, offset: 0x4A14, size: 0x8, addend: 0x0, symName: __ZNSt3__124__put_character_sequenceB7v160006IcNS_11char_traitsIcEEEERNS_13basic_ostreamIT_T0_EES7_PKS4_m, symObjAddr: 0x3A90, symBinAddr: 0x100007370, symSize: 0x1F0 }
  - { offsetInCU: 0x83CC, offset: 0x83CC, size: 0x8, addend: 0x0, symName: __ZNSt3__1lsB7v160006INS_11char_traitsIcEEEERNS_13basic_ostreamIcT_EES6_PKc, symObjAddr: 0x120, symBinAddr: 0x100003A00, symSize: 0x40 }
  - { offsetInCU: 0x8412, offset: 0x8412, size: 0x8, addend: 0x0, symName: __ZNSt3__14endlB7v160006IcNS_11char_traitsIcEEEERNS_13basic_ostreamIT_T0_EES7_, symObjAddr: 0x180, symBinAddr: 0x100003A60, symSize: 0x50 }
  - { offsetInCU: 0x8452, offset: 0x8452, size: 0x8, addend: 0x0, symName: __ZNSt3__1lsB7v160006IcNS_11char_traitsIcEENS_9allocatorIcEEEERNS_13basic_ostreamIT_T0_EES9_RKNS_12basic_stringIS6_S7_T1_EE, symObjAddr: 0x820, symBinAddr: 0x100004100, symSize: 0x50 }
  - { offsetInCU: 0x9252, offset: 0x9252, size: 0x8, addend: 0x0, symName: __ZNSt3__17getlineB7v160006IcNS_11char_traitsIcEENS_9allocatorIcEEEERNS_13basic_istreamIT_T0_EES9_RNS_12basic_stringIS6_S7_T1_EES6_, symObjAddr: 0xEE0, symBinAddr: 0x1000047C0, symSize: 0x220 }
  - { offsetInCU: 0x9310, offset: 0x9310, size: 0x8, addend: 0x0, symName: __ZNSt3__17getlineB7v160006IcNS_11char_traitsIcEENS_9allocatorIcEEEERNS_13basic_istreamIT_T0_EES9_RNS_12basic_stringIS6_S7_T1_EE, symObjAddr: 0x1150, symBinAddr: 0x100004A30, symSize: 0x50 }
  - { offsetInCU: 0x9373, offset: 0x9373, size: 0x8, addend: 0x0, symName: __ZNSt3__119__debug_db_insert_cB7v160006INS_6vectorIiNS_9allocatorIiEEEEEEvPT_, symObjAddr: 0x2290, symBinAddr: 0x100005B70, symSize: 0x10 }
  - { offsetInCU: 0x93A4, offset: 0x93A4, size: 0x8, addend: 0x0, symName: __ZNSt3__118__debug_db_erase_cB7v160006INS_6vectorIiNS_9allocatorIiEEEEEEvPT_, symObjAddr: 0x2510, symBinAddr: 0x100005DF0, symSize: 0x10 }
  - { offsetInCU: 0x93D5, offset: 0x93D5, size: 0x8, addend: 0x0, symName: __ZNSt3__112__to_addressB7v160006IiEEPT_S2_, symObjAddr: 0x2600, symBinAddr: 0x100005EE0, symSize: 0x10 }
  - { offsetInCU: 0x940A, offset: 0x940A, size: 0x8, addend: 0x0, symName: __ZNSt3__130__libcpp_is_constant_evaluatedB7v160006Ev, symObjAddr: 0x2750, symBinAddr: 0x100006030, symSize: 0x10 }
  - { offsetInCU: 0x9427, offset: 0x9427, size: 0x8, addend: 0x0, symName: __ZNSt3__119__libcpp_deallocateB7v160006EPvmm, symObjAddr: 0x2760, symBinAddr: 0x100006040, symSize: 0x30 }
  - { offsetInCU: 0x946F, offset: 0x946F, size: 0x8, addend: 0x0, symName: __ZNSt3__127__do_deallocate_handle_sizeB7v160006IJEEEvPvmDpT_, symObjAddr: 0x2790, symBinAddr: 0x100006070, symSize: 0x20 }
  - { offsetInCU: 0x94AD, offset: 0x94AD, size: 0x8, addend: 0x0, symName: __ZNSt3__124__libcpp_operator_deleteB7v160006IJPvEEEvDpT_, symObjAddr: 0x27B0, symBinAddr: 0x100006090, symSize: 0x20 }
  - { offsetInCU: 0x94E2, offset: 0x94E2, size: 0x8, addend: 0x0, symName: __ZNSt3__122__make_exception_guardB7v160006INS_6vectorIiNS_9allocatorIiEEE16__destroy_vectorEEENS_28__exception_guard_exceptionsIT_EES7_, symObjAddr: 0x2CD0, symBinAddr: 0x1000065B0, symSize: 0x40 }
  - { offsetInCU: 0x9517, offset: 0x9517, size: 0x8, addend: 0x0, symName: __ZNSt3__119__allocate_at_leastB7v160006INS_9allocatorIiEEEENS_19__allocation_resultINS_16allocator_traitsIT_E7pointerEEERS5_m, symObjAddr: 0x2FF0, symBinAddr: 0x1000068D0, symSize: 0x40 }
  - { offsetInCU: 0x955A, offset: 0x955A, size: 0x8, addend: 0x0, symName: __ZNSt3__13minB7v160006ImEERKT_S3_S3_, symObjAddr: 0x3100, symBinAddr: 0x1000069E0, symSize: 0x30 }
  - { offsetInCU: 0x979E, offset: 0x979E, size: 0x8, addend: 0x0, symName: __ZNSt3__13minB7v160006ImNS_6__lessImmEEEERKT_S5_S5_T0_, symObjAddr: 0x3160, symBinAddr: 0x100006A40, symSize: 0x50 }
  - { offsetInCU: 0x9833, offset: 0x9833, size: 0x8, addend: 0x0, symName: __ZNSt3__120__throw_length_errorB7v160006EPKc, symObjAddr: 0x3210, symBinAddr: 0x100006AF0, symSize: 0x70 }
  - { offsetInCU: 0x985B, offset: 0x985B, size: 0x8, addend: 0x0, symName: __ZNSt3__117__libcpp_allocateB7v160006Emm, symObjAddr: 0x33B0, symBinAddr: 0x100006C90, symSize: 0x20 }
  - { offsetInCU: 0x9898, offset: 0x9898, size: 0x8, addend: 0x0, symName: __ZNSt3__121__libcpp_operator_newB7v160006IJmEEEPvDpT_, symObjAddr: 0x33D0, symBinAddr: 0x100006CB0, symSize: 0x20 }
  - { offsetInCU: 0x98D1, offset: 0x98D1, size: 0x8, addend: 0x0, symName: __ZNSt3__130__uninitialized_allocator_copyB7v160006INS_9allocatorIiEEPiS3_S3_EET2_RT_T0_T1_S4_, symObjAddr: 0x3450, symBinAddr: 0x100006D30, symSize: 0x110 }
  - { offsetInCU: 0x996F, offset: 0x996F, size: 0x8, addend: 0x0, symName: __ZNSt3__122__make_exception_guardB7v160006INS_29_AllocatorDestroyRangeReverseINS_9allocatorIiEEPiEEEENS_28__exception_guard_exceptionsIT_EES7_, symObjAddr: 0x35C0, symBinAddr: 0x100006EA0, symSize: 0x60 }
  - { offsetInCU: 0x99A4, offset: 0x99A4, size: 0x8, addend: 0x0, symName: __ZNSt3__119__allocator_destroyB7v160006INS_9allocatorIiEENS_16reverse_iteratorIPiEES5_EEvRT_T0_T1_, symObjAddr: 0x3830, symBinAddr: 0x100007110, symSize: 0x70 }
  - { offsetInCU: 0x9A07, offset: 0x9A07, size: 0x8, addend: 0x0, symName: __ZNSt3__1neB7v160006IPiS1_EEbRKNS_16reverse_iteratorIT_EERKNS2_IT0_EE, symObjAddr: 0x38D0, symBinAddr: 0x1000071B0, symSize: 0x40 }
  - { offsetInCU: 0x9A53, offset: 0x9A53, size: 0x8, addend: 0x0, symName: __ZNSt3__112__to_addressB7v160006INS_16reverse_iteratorIPiEEvEENS_5decayIDTclsr19__to_address_helperIT_EE6__callclsr3stdE7declvalIRKS5_EEEEE4typeES7_, symObjAddr: 0x3910, symBinAddr: 0x1000071F0, symSize: 0x20 }
  - { offsetInCU: 0x9AB2, offset: 0x9AB2, size: 0x8, addend: 0x0, symName: __ZNSt3__116__pad_and_outputB7v160006IcNS_11char_traitsIcEEEENS_19ostreambuf_iteratorIT_T0_EES6_PKS4_S8_S8_RNS_8ios_baseES4_, symObjAddr: 0x3CE0, symBinAddr: 0x1000075C0, symSize: 0x220 }
  - { offsetInCU: 0x9B82, offset: 0x9B82, size: 0x8, addend: 0x0, symName: __ZNSt3__119__debug_db_insert_cB7v160006INS_12basic_stringIcNS_11char_traitsIcEENS_9allocatorIcEEEEEEvPT_, symObjAddr: 0x4170, symBinAddr: 0x100007A50, symSize: 0x10 }
  - { offsetInCU: 0x9BB3, offset: 0x9BB3, size: 0x8, addend: 0x0, symName: __ZNSt3__112__to_addressB7v160006IKcEEPT_S3_, symObjAddr: 0x4210, symBinAddr: 0x100007AF0, symSize: 0x10 }
  - { offsetInCU: 0x9C1B, offset: 0x9C1B, size: 0x8, addend: 0x0, symName: __ZNSt3__19use_facetB7v160006INS_5ctypeIcEEEERKT_RKNS_6localeE, symObjAddr: 0x44C0, symBinAddr: 0x100007DA0, symSize: 0x30 }
  - { offsetInCU: 0xA0EA, offset: 0xA0EA, size: 0x8, addend: 0x0, symName: __ZNSt3__118__constexpr_strlenB7v160006EPKc, symObjAddr: 0x4550, symBinAddr: 0x100007E30, symSize: 0x20 }
  - { offsetInCU: 0xA116, offset: 0xA116, size: 0x8, addend: 0x0, symName: __ZNSt3__125__debug_db_invalidate_allB7v160006INS_12basic_stringIcNS_11char_traitsIcEENS_9allocatorIcEEEEEEvPT_, symObjAddr: 0x4DE0, symBinAddr: 0x1000086C0, symSize: 0x10 }
  - { offsetInCU: 0xA37C, offset: 0xA37C, size: 0x8, addend: 0x0, symName: __ZNSt3__112__to_addressB7v160006I12traceprofileEEPT_S3_, symObjAddr: 0x51F0, symBinAddr: 0x100008AD0, symSize: 0x10 }
  - { offsetInCU: 0xA3B1, offset: 0xA3B1, size: 0x8, addend: 0x0, symName: __ZNSt3__13maxB7v160006ImEERKT_S3_S3_, symObjAddr: 0x55E0, symBinAddr: 0x100008EC0, symSize: 0x30 }
  - { offsetInCU: 0xA3F4, offset: 0xA3F4, size: 0x8, addend: 0x0, symName: __ZNSt3__13maxB7v160006ImNS_6__lessImmEEEERKT_S5_S5_T0_, symObjAddr: 0x56F0, symBinAddr: 0x100008FD0, symSize: 0x50 }
  - { offsetInCU: 0xA44E, offset: 0xA44E, size: 0x8, addend: 0x0, symName: __ZNSt3__119__allocate_at_leastB7v160006INS_9allocatorI12traceprofileEEEENS_19__allocation_resultINS_16allocator_traitsIT_E7pointerEEERS6_m, symObjAddr: 0x5840, symBinAddr: 0x100009120, symSize: 0x40 }
  - { offsetInCU: 0xA491, offset: 0xA491, size: 0x8, addend: 0x0, symName: __ZNSt3__142__uninitialized_allocator_move_if_noexceptB7v160006INS_9allocatorI12traceprofileEENS_16reverse_iteratorIPS2_EES6_S6_EET2_RT_T0_T1_S7_, symObjAddr: 0x5AE0, symBinAddr: 0x1000093C0, symSize: 0x190 }
  - { offsetInCU: 0xA530, offset: 0xA530, size: 0x8, addend: 0x0, symName: __ZNSt3__14swapB7v160006IP12traceprofileEEvRT_S4_, symObjAddr: 0x5CC0, symBinAddr: 0x1000095A0, symSize: 0x40 }
  - { offsetInCU: 0xA581, offset: 0xA581, size: 0x8, addend: 0x0, symName: __ZNSt3__125__debug_db_invalidate_allB7v160006INS_6vectorI12traceprofileNS_9allocatorIS2_EEEEEEvPT_, symObjAddr: 0x5DB0, symBinAddr: 0x100009690, symSize: 0x10 }
  - { offsetInCU: 0xA5B2, offset: 0xA5B2, size: 0x8, addend: 0x0, symName: __ZNSt3__122__make_exception_guardB7v160006INS_29_AllocatorDestroyRangeReverseINS_9allocatorI12traceprofileEENS_16reverse_iteratorIPS3_EEEEEENS_28__exception_guard_exceptionsIT_EESA_, symObjAddr: 0x5E00, symBinAddr: 0x1000096E0, symSize: 0x60 }
  - { offsetInCU: 0xA5E7, offset: 0xA5E7, size: 0x8, addend: 0x0, symName: __ZNSt3__1neB7v160006IP12traceprofileS2_EEbRKNS_16reverse_iteratorIT_EERKNS3_IT0_EE, symObjAddr: 0x5EA0, symBinAddr: 0x100009780, symSize: 0x40 }
  - { offsetInCU: 0xA633, offset: 0xA633, size: 0x8, addend: 0x0, symName: __ZNSt3__112__to_addressB7v160006INS_16reverse_iteratorIP12traceprofileEEvEENS_5decayIDTclsr19__to_address_helperIT_EE6__callclsr3stdE7declvalIRKS6_EEEEE4typeES8_, symObjAddr: 0x5EE0, symBinAddr: 0x1000097C0, symSize: 0x20 }
  - { offsetInCU: 0xA692, offset: 0xA692, size: 0x8, addend: 0x0, symName: __ZNSt3__119__allocator_destroyB7v160006INS_9allocatorI12traceprofileEENS_16reverse_iteratorINS4_IPS2_EEEES7_EEvRT_T0_T1_, symObjAddr: 0x61D0, symBinAddr: 0x100009AB0, symSize: 0x70 }
  - { offsetInCU: 0xA6F5, offset: 0xA6F5, size: 0x8, addend: 0x0, symName: __ZNSt3__1neB7v160006INS_16reverse_iteratorIP12traceprofileEES4_EEbRKNS1_IT_EERKNS1_IT0_EE, symObjAddr: 0x6270, symBinAddr: 0x100009B50, symSize: 0x50 }
  - { offsetInCU: 0xA741, offset: 0xA741, size: 0x8, addend: 0x0, symName: __ZNSt3__112__to_addressB7v160006INS_16reverse_iteratorINS1_IP12traceprofileEEEEvEENS_5decayIDTclsr19__to_address_helperIT_EE6__callclsr3stdE7declvalIRKS7_EEEEE4typeES9_, symObjAddr: 0x62F0, symBinAddr: 0x100009BD0, symSize: 0x20 }
  - { offsetInCU: 0xA7A0, offset: 0xA7A0, size: 0x8, addend: 0x0, symName: __ZNSt3__142__uninitialized_allocator_move_if_noexceptB7v160006INS_9allocatorIiEENS_16reverse_iteratorIPiEES5_ivEET1_RT_T0_S9_S6_, symObjAddr: 0x6D30, symBinAddr: 0x10000A610, symSize: 0x120 }
  - { offsetInCU: 0xA81C, offset: 0xA81C, size: 0x8, addend: 0x0, symName: __ZNSt3__14swapB7v160006IPiEEvRT_S3_, symObjAddr: 0x6E50, symBinAddr: 0x10000A730, symSize: 0x40 }
  - { offsetInCU: 0xA86D, offset: 0xA86D, size: 0x8, addend: 0x0, symName: __ZNSt3__125__debug_db_invalidate_allB7v160006INS_6vectorIiNS_9allocatorIiEEEEEEvPT_, symObjAddr: 0x6E90, symBinAddr: 0x10000A770, symSize: 0x10 }
  - { offsetInCU: 0xA8C3, offset: 0xA8C3, size: 0x8, addend: 0x0, symName: __ZNSt3__114__construct_atB7v160006IiJiEPiEEPT_S3_DpOT0_, symObjAddr: 0x6EA0, symBinAddr: 0x10000A780, symSize: 0x30 }
  - { offsetInCU: 0xA933, offset: 0xA933, size: 0x8, addend: 0x0, symName: __ZNSt3__14moveB7v160006INS_16reverse_iteratorIPiEES3_EET0_T_S5_S4_, symObjAddr: 0x6ED0, symBinAddr: 0x10000A7B0, symSize: 0x80 }
  - { offsetInCU: 0xA98D, offset: 0xA98D, size: 0x8, addend: 0x0, symName: __ZNSt3__16__moveB7v160006INS_17_ClassicAlgPolicyENS_16reverse_iteratorIPiEES4_S4_EENS_4pairIT0_T2_EES6_T1_S7_, symObjAddr: 0x6F50, symBinAddr: 0x10000A830, symSize: 0x90 }
  - { offsetInCU: 0xA9F9, offset: 0xA9F9, size: 0x8, addend: 0x0, symName: __ZNSt3__123__dispatch_copy_or_moveB7v160006INS_17_ClassicAlgPolicyENS_11__move_loopIS1_EENS_14__move_trivialENS_16reverse_iteratorIPiEES7_S7_EENS_4pairIT2_T4_EES9_T3_SA_, symObjAddr: 0x6FE0, symBinAddr: 0x10000A8C0, symSize: 0xB0 }
  - { offsetInCU: 0xAA77, offset: 0xAA77, size: 0x8, addend: 0x0, symName: __ZNSt3__121__unwrap_and_dispatchB7v160006INS_10__overloadINS_11__move_loopINS_17_ClassicAlgPolicyEEENS_14__move_trivialEEENS_16reverse_iteratorIPiEES9_S9_Li0EEENS_4pairIT0_T2_EESB_T1_SC_, symObjAddr: 0x7090, symBinAddr: 0x10000A970, symSize: 0x210 }
  - { offsetInCU: 0xAB06, offset: 0xAB06, size: 0x8, addend: 0x0, symName: __ZNSt3__114__unwrap_rangeB7v160006INS_16reverse_iteratorIPiEES3_EENS_4pairIT0_S5_EET_S7_, symObjAddr: 0x72A0, symBinAddr: 0x10000AB80, symSize: 0x90 }
  - { offsetInCU: 0xAC5A, offset: 0xAC5A, size: 0x8, addend: 0x0, symName: __ZNSt3__113__unwrap_iterB7v160006INS_16reverse_iteratorIPiEENS_18__unwrap_iter_implIS3_Lb0EEELi0EEEDTclsrT0_8__unwrapclsr3stdE7declvalIT_EEEES7_, symObjAddr: 0x73D0, symBinAddr: 0x10000ACB0, symSize: 0x40 }
  - { offsetInCU: 0xAC9E, offset: 0xAC9E, size: 0x8, addend: 0x0, symName: __ZNSt3__19make_pairB7v160006INS_16reverse_iteratorIPiEES3_EENS_4pairINS_18__unwrap_ref_decayIT_E4typeENS5_IT0_E4typeEEEOS6_OS9_, symObjAddr: 0x7410, symBinAddr: 0x10000ACF0, symSize: 0x30 }
  - { offsetInCU: 0xACED, offset: 0xACED, size: 0x8, addend: 0x0, symName: __ZNSt3__114__rewrap_rangeB7v160006INS_16reverse_iteratorIPiEES3_EET_S4_T0_, symObjAddr: 0x7440, symBinAddr: 0x10000AD20, symSize: 0x60 }
  - { offsetInCU: 0xAD39, offset: 0xAD39, size: 0x8, addend: 0x0, symName: __ZNSt3__113__rewrap_iterB7v160006INS_16reverse_iteratorIPiEES3_NS_18__unwrap_iter_implIS3_Lb0EEEEET_S6_T0_, symObjAddr: 0x74A0, symBinAddr: 0x10000AD80, symSize: 0x80 }
  - { offsetInCU: 0xAE40, offset: 0xAE40, size: 0x8, addend: 0x0, symName: __ZNSt3__120__throw_out_of_rangeB7v160006EPKc, symObjAddr: 0x77D0, symBinAddr: 0x10000B0B0, symSize: 0x70 }
  - { offsetInCU: 0xAE6A, offset: 0xAE6A, size: 0x8, addend: 0x0, symName: __ZNSt3__119__debug_db_insert_cB7v160006INS_6vectorI12traceprofileNS_9allocatorIS2_EEEEEEvPT_, symObjAddr: 0x7930, symBinAddr: 0x10000B210, symSize: 0x10 }
  - { offsetInCU: 0xAE9B, offset: 0xAE9B, size: 0x8, addend: 0x0, symName: __ZNSt3__118__debug_db_erase_cB7v160006INS_6vectorI12traceprofileNS_9allocatorIS2_EEEEEEvPT_, symObjAddr: 0x7AE0, symBinAddr: 0x10000B3C0, symSize: 0x10 }
  - { offsetInCU: 0xB14B, offset: 0xB14B, size: 0x8, addend: 0x0, symName: __ZSt28__throw_bad_array_new_lengthB7v160006v, symObjAddr: 0x3370, symBinAddr: 0x100006C50, symSize: 0x40 }
  - { offsetInCU: 0xBBED, offset: 0xBBED, size: 0x8, addend: 0x0, symName: __ZNSt3__16vectorI12traceprofileNS_9allocatorIS1_EEE26__swap_out_circular_bufferERNS_14__split_bufferIS1_RS3_EE, symObjAddr: 0x53C0, symBinAddr: 0x100008CA0, symSize: 0x130 }
  - { offsetInCU: 0xBC81, offset: 0xBC81, size: 0x8, addend: 0x0, symName: __ZNSt3__16vectorIiNS_9allocatorIiEEE26__swap_out_circular_bufferERNS_14__split_bufferIiRS2_EE, symObjAddr: 0x69E0, symBinAddr: 0x10000A2C0, symSize: 0x130 }
  - { offsetInCU: 0xBCD2, offset: 0xBCD2, size: 0x8, addend: 0x0, symName: __Z3powB7v160006IfiENSt3__19enable_ifIXaasr3std13is_arithmeticIT_EE5valuesr3std13is_arithmeticIT0_EE5valueENS0_9__promoteIS2_S3_vEEE4type4typeES2_S3_, symObjAddr: 0x1690, symBinAddr: 0x100004F70, symSize: 0x30 }
  - { offsetInCU: 0xDF66, offset: 0xDF66, size: 0x8, addend: 0x0, symName: __Z8gennoisePci, symObjAddr: 0x0, symBinAddr: 0x1000038E0, symSize: 0x50 }
  - { offsetInCU: 0xDFB9, offset: 0xDFB9, size: 0x8, addend: 0x0, symName: __Z10sendpacketP4pcapPci, symObjAddr: 0x50, symBinAddr: 0x100003930, symSize: 0xD0 }
  - { offsetInCU: 0xE03D, offset: 0xE03D, size: 0x8, addend: 0x0, symName: __ZNSt3__113basic_ostreamIcNS_11char_traitsIcEEElsB7v160006EPFRS3_S4_E, symObjAddr: 0x160, symBinAddr: 0x100003A40, symSize: 0x20 }
  - { offsetInCU: 0xE070, offset: 0xE070, size: 0x8, addend: 0x0, symName: __Z12createpacketP4pcapPKcS2_i, symObjAddr: 0x1D0, symBinAddr: 0x100003AB0, symSize: 0x290 }
  - { offsetInCU: 0xE136, offset: 0xE136, size: 0x8, addend: 0x0, symName: __ZL12_OSSwapInt16t, symObjAddr: 0x460, symBinAddr: 0x100003D40, symSize: 0x20 }
  - { offsetInCU: 0xE162, offset: 0xE162, size: 0x8, addend: 0x0, symName: __Z17init_traceprofileP12traceprofile, symObjAddr: 0x480, symBinAddr: 0x100003D60, symSize: 0xC0 }
  - { offsetInCU: 0xE198, offset: 0xE198, size: 0x8, addend: 0x0, symName: __Z19print_profile_entry12traceprofile, symObjAddr: 0x540, symBinAddr: 0x100003E20, symSize: 0x2E0 }
  - { offsetInCU: 0xE1C1, offset: 0xE1C1, size: 0x8, addend: 0x0, symName: __Z12loadProfilesNSt3__112basic_stringIcNS_11char_traitsIcEENS_9allocatorIcEEEERNS_6vectorI12traceprofileNS3_IS7_EEEE, symObjAddr: 0x870, symBinAddr: 0x100004150, symSize: 0x480 }
  - { offsetInCU: 0xE33D, offset: 0xE33D, size: 0x8, addend: 0x0, symName: __ZNSt3__114basic_ifstreamIcNS_11char_traitsIcEEEC1ERKNS_12basic_stringIcS2_NS_9allocatorIcEEEEj, symObjAddr: 0xCF0, symBinAddr: 0x1000045D0, symSize: 0x180 }
  - { offsetInCU: 0xE387, offset: 0xE387, size: 0x8, addend: 0x0, symName: __ZNKSt3__114basic_ifstreamIcNS_11char_traitsIcEEE7is_openEv, symObjAddr: 0xE70, symBinAddr: 0x100004750, symSize: 0x30 }
  - { offsetInCU: 0xE3B4, offset: 0xE3B4, size: 0x8, addend: 0x0, symName: __ZN12traceprofileC1Ev, symObjAddr: 0xEA0, symBinAddr: 0x100004780, symSize: 0x20 }
  - { offsetInCU: 0xE3E0, offset: 0xE3E0, size: 0x8, addend: 0x0, symName: __ZNSt3__112basic_stringIcNS_11char_traitsIcEENS_9allocatorIcEEEC1B7v160006Ev, symObjAddr: 0xEC0, symBinAddr: 0x1000047A0, symSize: 0x20 }
  - { offsetInCU: 0xE40A, offset: 0xE40A, size: 0x8, addend: 0x0, symName: __ZNKSt3__19basic_iosIcNS_11char_traitsIcEEEcvPvB7v160006Ev, symObjAddr: 0x1100, symBinAddr: 0x1000049E0, symSize: 0x50 }
  - { offsetInCU: 0xE430, offset: 0xE430, size: 0x8, addend: 0x0, symName: __ZNSt3__16vectorI12traceprofileNS_9allocatorIS1_EEE9push_backB7v160006ERKS1_, symObjAddr: 0x11A0, symBinAddr: 0x100004A80, symSize: 0x60 }
  - { offsetInCU: 0xE467, offset: 0xE467, size: 0x8, addend: 0x0, symName: __ZN12traceprofileD1Ev, symObjAddr: 0x1210, symBinAddr: 0x100004AF0, symSize: 0x20 }
  - { offsetInCU: 0xE498, offset: 0xE498, size: 0x8, addend: 0x0, symName: __ZNSt3__114basic_ifstreamIcNS_11char_traitsIcEEED1Ev, symObjAddr: 0x1230, symBinAddr: 0x100004B10, symSize: 0x80 }
  - { offsetInCU: 0xE4C4, offset: 0xE4C4, size: 0x8, addend: 0x0, symName: __Z13process_entryP4pcapPcP12traceprofile7timeval, symObjAddr: 0x12B0, symBinAddr: 0x100004B90, symSize: 0x250 }
  - { offsetInCU: 0xE572, offset: 0xE572, size: 0x8, addend: 0x0, symName: __ZNKSt3__112basic_stringIcNS_11char_traitsIcEENS_9allocatorIcEEE5c_strB7v160006Ev, symObjAddr: 0x1500, symBinAddr: 0x100004DE0, symSize: 0x20 }
  - { offsetInCU: 0xE598, offset: 0xE598, size: 0x8, addend: 0x0, symName: __ZNSt3__16vectorIiNS_9allocatorIiEEE9push_backB7v160006ERKi, symObjAddr: 0x1520, symBinAddr: 0x100004E00, symSize: 0x60 }
  - { offsetInCU: 0xE5CE, offset: 0xE5CE, size: 0x8, addend: 0x0, symName: __Z14calcStatisticsP12traceprofile, symObjAddr: 0x1580, symBinAddr: 0x100004E60, symSize: 0xF0 }
  - { offsetInCU: 0xE626, offset: 0xE626, size: 0x8, addend: 0x0, symName: __ZNKSt3__16vectorIiNS_9allocatorIiEEE4sizeB7v160006Ev, symObjAddr: 0x1670, symBinAddr: 0x100004F50, symSize: 0x20 }
  - { offsetInCU: 0xE64C, offset: 0xE64C, size: 0x8, addend: 0x0, symName: __ZNSt3__16vectorIiNS_9allocatorIiEEE2atEm, symObjAddr: 0x16C0, symBinAddr: 0x100004FA0, symSize: 0x60 }
  - { offsetInCU: 0xE682, offset: 0xE682, size: 0x8, addend: 0x0, symName: __Z4sqrtB7v160006f, symObjAddr: 0x1720, symBinAddr: 0x100005000, symSize: 0x20 }
  - { offsetInCU: 0xE6B1, offset: 0xE6B1, size: 0x8, addend: 0x0, symName: _main, symObjAddr: 0x1740, symBinAddr: 0x100005020, symSize: 0x880 }
  - { offsetInCU: 0xE87A, offset: 0xE87A, size: 0x8, addend: 0x0, symName: __ZNSt3__16vectorI12traceprofileNS_9allocatorIS1_EEEC1B7v160006Ev, symObjAddr: 0x1FC0, symBinAddr: 0x1000058A0, symSize: 0x20 }
  - { offsetInCU: 0xE8A9, offset: 0xE8A9, size: 0x8, addend: 0x0, symName: __ZNSt3__112basic_stringIcNS_11char_traitsIcEENS_9allocatorIcEEEC1B7v160006IDnEEPKc, symObjAddr: 0x1FE0, symBinAddr: 0x1000058C0, symSize: 0x30 }
  - { offsetInCU: 0xE8E7, offset: 0xE8E7, size: 0x8, addend: 0x0, symName: __ZNKSt3__16vectorI12traceprofileNS_9allocatorIS1_EEE4sizeB7v160006Ev, symObjAddr: 0x2010, symBinAddr: 0x1000058F0, symSize: 0x30 }
  - { offsetInCU: 0xE90D, offset: 0xE90D, size: 0x8, addend: 0x0, symName: __ZNSt3__16vectorI12traceprofileNS_9allocatorIS1_EEE2atEm, symObjAddr: 0x2040, symBinAddr: 0x100005920, symSize: 0x60 }
  - { offsetInCU: 0xE944, offset: 0xE944, size: 0x8, addend: 0x0, symName: __ZN12traceprofileC1ERKS_, symObjAddr: 0x20A0, symBinAddr: 0x100005980, symSize: 0x30 }
  - { offsetInCU: 0xE979, offset: 0xE979, size: 0x8, addend: 0x0, symName: __ZNSt3__16vectorI12traceprofileNS_9allocatorIS1_EEED1B7v160006Ev, symObjAddr: 0x20D0, symBinAddr: 0x1000059B0, symSize: 0x20 }
  - { offsetInCU: 0xE9A3, offset: 0xE9A3, size: 0x8, addend: 0x0, symName: __ZN12traceprofileC2Ev, symObjAddr: 0x20F0, symBinAddr: 0x1000059D0, symSize: 0xE0 }
  - { offsetInCU: 0xE9CF, offset: 0xE9CF, size: 0x8, addend: 0x0, symName: __ZNSt3__16vectorIiNS_9allocatorIiEEEC1B7v160006Ev, symObjAddr: 0x21D0, symBinAddr: 0x100005AB0, symSize: 0x20 }
  - { offsetInCU: 0xE9F9, offset: 0xE9F9, size: 0x8, addend: 0x0, symName: __ZNSt3__16vectorIiNS_9allocatorIiEEED1B7v160006Ev, symObjAddr: 0x21F0, symBinAddr: 0x100005AD0, symSize: 0x20 }
  - { offsetInCU: 0xEA23, offset: 0xEA23, size: 0x8, addend: 0x0, symName: __ZNSt3__16vectorIiNS_9allocatorIiEEEC2B7v160006Ev, symObjAddr: 0x2210, symBinAddr: 0x100005AF0, symSize: 0x50 }
  - { offsetInCU: 0xEA59, offset: 0xEA59, size: 0x8, addend: 0x0, symName: __ZNSt3__117__compressed_pairIPiNS_9allocatorIiEEEC1B7v160006IDnNS_18__default_init_tagEEEOT_OT0_, symObjAddr: 0x2260, symBinAddr: 0x100005B40, symSize: 0x30 }
  - { offsetInCU: 0xEAB1, offset: 0xEAB1, size: 0x8, addend: 0x0, symName: __ZNSt3__117__compressed_pairIPiNS_9allocatorIiEEEC2B7v160006IDnNS_18__default_init_tagEEEOT_OT0_, symObjAddr: 0x22A0, symBinAddr: 0x100005B80, symSize: 0x40 }
  - { offsetInCU: 0xEB09, offset: 0xEB09, size: 0x8, addend: 0x0, symName: __ZNSt3__122__compressed_pair_elemIPiLi0ELb0EEC2B7v160006IDnvEEOT_, symObjAddr: 0x22E0, symBinAddr: 0x100005BC0, symSize: 0x20 }
  - { offsetInCU: 0xEB4B, offset: 0xEB4B, size: 0x8, addend: 0x0, symName: __ZNSt3__122__compressed_pair_elemINS_9allocatorIiEELi1ELb1EEC2B7v160006ENS_18__default_init_tagE, symObjAddr: 0x2300, symBinAddr: 0x100005BE0, symSize: 0x20 }
  - { offsetInCU: 0xEB80, offset: 0xEB80, size: 0x8, addend: 0x0, symName: __ZNSt3__19allocatorIiEC2B7v160006Ev, symObjAddr: 0x2320, symBinAddr: 0x100005C00, symSize: 0x20 }
  - { offsetInCU: 0xEBAA, offset: 0xEBAA, size: 0x8, addend: 0x0, symName: __ZNSt3__116__non_trivial_ifILb1ENS_9allocatorIiEEEC2B7v160006Ev, symObjAddr: 0x2340, symBinAddr: 0x100005C20, symSize: 0x10 }
  - { offsetInCU: 0xEBD4, offset: 0xEBD4, size: 0x8, addend: 0x0, symName: __ZNSt3__16vectorIiNS_9allocatorIiEEED2B7v160006Ev, symObjAddr: 0x2350, symBinAddr: 0x100005C30, symSize: 0x30 }
  - { offsetInCU: 0xEBFE, offset: 0xEBFE, size: 0x8, addend: 0x0, symName: __ZNSt3__16vectorIiNS_9allocatorIiEEE16__destroy_vectorC1ERS3_, symObjAddr: 0x2380, symBinAddr: 0x100005C60, symSize: 0x30 }
  - { offsetInCU: 0xEC37, offset: 0xEC37, size: 0x8, addend: 0x0, symName: __ZNSt3__16vectorIiNS_9allocatorIiEEE16__destroy_vectorclB7v160006Ev, symObjAddr: 0x23B0, symBinAddr: 0x100005C90, symSize: 0x90 }
  - { offsetInCU: 0xEC5D, offset: 0xEC5D, size: 0x8, addend: 0x0, symName: __ZNSt3__16vectorIiNS_9allocatorIiEEE16__destroy_vectorC2ERS3_, symObjAddr: 0x2440, symBinAddr: 0x100005D20, symSize: 0x20 }
  - { offsetInCU: 0xEC96, offset: 0xEC96, size: 0x8, addend: 0x0, symName: __ZNKSt3__16vectorIiNS_9allocatorIiEEE17__annotate_deleteB7v160006Ev, symObjAddr: 0x2460, symBinAddr: 0x100005D40, symSize: 0xB0 }
  - { offsetInCU: 0xECBC, offset: 0xECBC, size: 0x8, addend: 0x0, symName: __ZNSt3__16vectorIiNS_9allocatorIiEEE7__clearB7v160006Ev, symObjAddr: 0x2520, symBinAddr: 0x100005E00, symSize: 0x20 }
  - { offsetInCU: 0xECE2, offset: 0xECE2, size: 0x8, addend: 0x0, symName: __ZNSt3__116allocator_traitsINS_9allocatorIiEEE10deallocateB7v160006ERS2_Pim, symObjAddr: 0x2540, symBinAddr: 0x100005E20, symSize: 0x30 }
  - { offsetInCU: 0xED24, offset: 0xED24, size: 0x8, addend: 0x0, symName: __ZNSt3__16vectorIiNS_9allocatorIiEEE7__allocB7v160006Ev, symObjAddr: 0x2570, symBinAddr: 0x100005E50, symSize: 0x20 }
  - { offsetInCU: 0xED4A, offset: 0xED4A, size: 0x8, addend: 0x0, symName: __ZNKSt3__16vectorIiNS_9allocatorIiEEE8capacityB7v160006Ev, symObjAddr: 0x2590, symBinAddr: 0x100005E70, symSize: 0x30 }
  - { offsetInCU: 0xED70, offset: 0xED70, size: 0x8, addend: 0x0, symName: __ZNKSt3__16vectorIiNS_9allocatorIiEEE31__annotate_contiguous_containerB7v160006EPKvS5_S5_S5_, symObjAddr: 0x25C0, symBinAddr: 0x100005EA0, symSize: 0x20 }
  - { offsetInCU: 0xEDC2, offset: 0xEDC2, size: 0x8, addend: 0x0, symName: __ZNKSt3__16vectorIiNS_9allocatorIiEEE4dataB7v160006Ev, symObjAddr: 0x25E0, symBinAddr: 0x100005EC0, symSize: 0x20 }
  - { offsetInCU: 0xEDE8, offset: 0xEDE8, size: 0x8, addend: 0x0, symName: __ZNSt3__16vectorIiNS_9allocatorIiEEE22__base_destruct_at_endB7v160006EPi, symObjAddr: 0x2610, symBinAddr: 0x100005EF0, symSize: 0x90 }
  - { offsetInCU: 0xEE2C, offset: 0xEE2C, size: 0x8, addend: 0x0, symName: __ZNSt3__116allocator_traitsINS_9allocatorIiEEE7destroyB7v160006IivEEvRS2_PT_, symObjAddr: 0x26A0, symBinAddr: 0x100005F80, symSize: 0x30 }
  - { offsetInCU: 0xEE69, offset: 0xEE69, size: 0x8, addend: 0x0, symName: __ZNSt3__19allocatorIiE7destroyB7v160006EPi, symObjAddr: 0x26D0, symBinAddr: 0x100005FB0, symSize: 0x10 }
  - { offsetInCU: 0xEE9D, offset: 0xEE9D, size: 0x8, addend: 0x0, symName: __ZNSt3__19allocatorIiE10deallocateB7v160006EPim, symObjAddr: 0x26E0, symBinAddr: 0x100005FC0, symSize: 0x70 }
  - { offsetInCU: 0xEEDF, offset: 0xEEDF, size: 0x8, addend: 0x0, symName: __ZNSt3__117__compressed_pairIPiNS_9allocatorIiEEE6secondB7v160006Ev, symObjAddr: 0x27D0, symBinAddr: 0x1000060B0, symSize: 0x20 }
  - { offsetInCU: 0xEF05, offset: 0xEF05, size: 0x8, addend: 0x0, symName: __ZNSt3__122__compressed_pair_elemINS_9allocatorIiEELi1ELb1EE5__getB7v160006Ev, symObjAddr: 0x27F0, symBinAddr: 0x1000060D0, symSize: 0x10 }
  - { offsetInCU: 0xEF2B, offset: 0xEF2B, size: 0x8, addend: 0x0, symName: __ZNKSt3__16vectorIiNS_9allocatorIiEEE9__end_capB7v160006Ev, symObjAddr: 0x2800, symBinAddr: 0x1000060E0, symSize: 0x20 }
  - { offsetInCU: 0xEF51, offset: 0xEF51, size: 0x8, addend: 0x0, symName: __ZNKSt3__117__compressed_pairIPiNS_9allocatorIiEEE5firstB7v160006Ev, symObjAddr: 0x2820, symBinAddr: 0x100006100, symSize: 0x20 }
  - { offsetInCU: 0xEF77, offset: 0xEF77, size: 0x8, addend: 0x0, symName: __ZNKSt3__122__compressed_pair_elemIPiLi0ELb0EE5__getB7v160006Ev, symObjAddr: 0x2840, symBinAddr: 0x100006120, symSize: 0x10 }
  - { offsetInCU: 0xEF9D, offset: 0xEF9D, size: 0x8, addend: 0x0, symName: __ZN12traceprofileD2Ev, symObjAddr: 0x2850, symBinAddr: 0x100006130, symSize: 0xE0 }
  - { offsetInCU: 0xEFC9, offset: 0xEFC9, size: 0x8, addend: 0x0, symName: __ZNSt3__114basic_ifstreamIcNS_11char_traitsIcEEED2Ev, symObjAddr: 0x2930, symBinAddr: 0x100006210, symSize: 0xA0 }
  - { offsetInCU: 0xF003, offset: 0xF003, size: 0x8, addend: 0x0, symName: __ZTv0_n24_NSt3__114basic_ifstreamIcNS_11char_traitsIcEEED1Ev, symObjAddr: 0x29D0, symBinAddr: 0x1000062B0, symSize: 0x20 }
  - { offsetInCU: 0xF01A, offset: 0xF01A, size: 0x8, addend: 0x0, symName: __ZN12traceprofileC2ERKS_, symObjAddr: 0x29F0, symBinAddr: 0x1000062D0, symSize: 0x140 }
  - { offsetInCU: 0xF04F, offset: 0xF04F, size: 0x8, addend: 0x0, symName: __ZNSt3__16vectorIiNS_9allocatorIiEEEC1ERKS3_, symObjAddr: 0x2B30, symBinAddr: 0x100006410, symSize: 0x30 }
  - { offsetInCU: 0xF08A, offset: 0xF08A, size: 0x8, addend: 0x0, symName: __ZNSt3__16vectorIiNS_9allocatorIiEEEC2ERKS3_, symObjAddr: 0x2B60, symBinAddr: 0x100006440, symSize: 0x110 }
  - { offsetInCU: 0xF0F4, offset: 0xF0F4, size: 0x8, addend: 0x0, symName: __ZNSt3__116allocator_traitsINS_9allocatorIiEEE37select_on_container_copy_constructionB7v160006IS2_vvEES2_RKS2_, symObjAddr: 0x2C70, symBinAddr: 0x100006550, symSize: 0x10 }
  - { offsetInCU: 0xF123, offset: 0xF123, size: 0x8, addend: 0x0, symName: __ZNKSt3__16vectorIiNS_9allocatorIiEEE7__allocB7v160006Ev, symObjAddr: 0x2C80, symBinAddr: 0x100006560, symSize: 0x20 }
  - { offsetInCU: 0xF14F, offset: 0xF14F, size: 0x8, addend: 0x0, symName: __ZNSt3__117__compressed_pairIPiNS_9allocatorIiEEEC1B7v160006IDnS3_EEOT_OT0_, symObjAddr: 0x2CA0, symBinAddr: 0x100006580, symSize: 0x30 }
  - { offsetInCU: 0xF1A7, offset: 0xF1A7, size: 0x8, addend: 0x0, symName: __ZNSt3__16vectorIiNS_9allocatorIiEEE11__vallocateB7v160006Em, symObjAddr: 0x2D10, symBinAddr: 0x1000065F0, symSize: 0xA0 }
  - { offsetInCU: 0xF1EB, offset: 0xF1EB, size: 0x8, addend: 0x0, symName: __ZNSt3__16vectorIiNS_9allocatorIiEEE18__construct_at_endIPiLi0EEEvT_S6_m, symObjAddr: 0x2DB0, symBinAddr: 0x100006690, symSize: 0xA0 }
  - { offsetInCU: 0xF25E, offset: 0xF25E, size: 0x8, addend: 0x0, symName: __ZNSt3__128__exception_guard_exceptionsINS_6vectorIiNS_9allocatorIiEEE16__destroy_vectorEE10__completeB7v160006Ev, symObjAddr: 0x2E50, symBinAddr: 0x100006730, symSize: 0x20 }
  - { offsetInCU: 0xF284, offset: 0xF284, size: 0x8, addend: 0x0, symName: __ZNSt3__128__exception_guard_exceptionsINS_6vectorIiNS_9allocatorIiEEE16__destroy_vectorEED1B7v160006Ev, symObjAddr: 0x2E70, symBinAddr: 0x100006750, symSize: 0x20 }
  - { offsetInCU: 0xF2AE, offset: 0xF2AE, size: 0x8, addend: 0x0, symName: __ZNKSt3__117__compressed_pairIPiNS_9allocatorIiEEE6secondB7v160006Ev, symObjAddr: 0x2E90, symBinAddr: 0x100006770, symSize: 0x20 }
  - { offsetInCU: 0xF2D4, offset: 0xF2D4, size: 0x8, addend: 0x0, symName: __ZNKSt3__122__compressed_pair_elemINS_9allocatorIiEELi1ELb1EE5__getB7v160006Ev, symObjAddr: 0x2EB0, symBinAddr: 0x100006790, symSize: 0x10 }
  - { offsetInCU: 0xF2FA, offset: 0xF2FA, size: 0x8, addend: 0x0, symName: __ZNSt3__117__compressed_pairIPiNS_9allocatorIiEEEC2B7v160006IDnS3_EEOT_OT0_, symObjAddr: 0x2EC0, symBinAddr: 0x1000067A0, symSize: 0x40 }
  - { offsetInCU: 0xF352, offset: 0xF352, size: 0x8, addend: 0x0, symName: __ZNSt3__122__compressed_pair_elemINS_9allocatorIiEELi1ELb1EEC2B7v160006IS2_vEEOT_, symObjAddr: 0x2F00, symBinAddr: 0x1000067E0, symSize: 0x10 }
  - { offsetInCU: 0xF394, offset: 0xF394, size: 0x8, addend: 0x0, symName: __ZNSt3__128__exception_guard_exceptionsINS_6vectorIiNS_9allocatorIiEEE16__destroy_vectorEEC1B7v160006ES5_, symObjAddr: 0x2F10, symBinAddr: 0x1000067F0, symSize: 0x30 }
  - { offsetInCU: 0xF3CC, offset: 0xF3CC, size: 0x8, addend: 0x0, symName: __ZNSt3__128__exception_guard_exceptionsINS_6vectorIiNS_9allocatorIiEEE16__destroy_vectorEEC2B7v160006ES5_, symObjAddr: 0x2F40, symBinAddr: 0x100006820, symSize: 0x20 }
  - { offsetInCU: 0xF404, offset: 0xF404, size: 0x8, addend: 0x0, symName: __ZNKSt3__16vectorIiNS_9allocatorIiEEE8max_sizeEv, symObjAddr: 0x2F60, symBinAddr: 0x100006840, symSize: 0x70 }
  - { offsetInCU: 0xF42C, offset: 0xF42C, size: 0x8, addend: 0x0, symName: __ZNKSt3__16vectorIiNS_9allocatorIiEEE20__throw_length_errorB7v160006Ev, symObjAddr: 0x2FD0, symBinAddr: 0x1000068B0, symSize: 0x20 }
  - { offsetInCU: 0xF452, offset: 0xF452, size: 0x8, addend: 0x0, symName: __ZNSt3__16vectorIiNS_9allocatorIiEEE9__end_capB7v160006Ev, symObjAddr: 0x3030, symBinAddr: 0x100006910, symSize: 0x20 }
  - { offsetInCU: 0xF478, offset: 0xF478, size: 0x8, addend: 0x0, symName: __ZNKSt3__16vectorIiNS_9allocatorIiEEE14__annotate_newB7v160006Em, symObjAddr: 0x3050, symBinAddr: 0x100006930, symSize: 0xB0 }
  - { offsetInCU: 0xF4AD, offset: 0xF4AD, size: 0x8, addend: 0x0, symName: __ZNSt3__116allocator_traitsINS_9allocatorIiEEE8max_sizeB7v160006IS2_vEEmRKS2_, symObjAddr: 0x3130, symBinAddr: 0x100006A10, symSize: 0x20 }
  - { offsetInCU: 0xF4DB, offset: 0xF4DB, size: 0x8, addend: 0x0, symName: __ZNSt3__114numeric_limitsIlE3maxB7v160006Ev, symObjAddr: 0x3150, symBinAddr: 0x100006A30, symSize: 0x10 }
  - { offsetInCU: 0xF503, offset: 0xF503, size: 0x8, addend: 0x0, symName: __ZNKSt3__16__lessImmEclB7v160006ERKmS3_, symObjAddr: 0x31B0, symBinAddr: 0x100006A90, symSize: 0x30 }
  - { offsetInCU: 0xF545, offset: 0xF545, size: 0x8, addend: 0x0, symName: __ZNKSt3__19allocatorIiE8max_sizeB7v160006Ev, symObjAddr: 0x31E0, symBinAddr: 0x100006AC0, symSize: 0x20 }
  - { offsetInCU: 0xF56B, offset: 0xF56B, size: 0x8, addend: 0x0, symName: __ZNSt3__123__libcpp_numeric_limitsIlLb1EE3maxB7v160006Ev, symObjAddr: 0x3200, symBinAddr: 0x100006AE0, symSize: 0x10 }
  - { offsetInCU: 0xF57F, offset: 0xF57F, size: 0x8, addend: 0x0, symName: __ZNSt12length_errorC1B7v160006EPKc, symObjAddr: 0x3280, symBinAddr: 0x100006B60, symSize: 0x30 }
  - { offsetInCU: 0xF5B7, offset: 0xF5B7, size: 0x8, addend: 0x0, symName: __ZNSt12length_errorC2B7v160006EPKc, symObjAddr: 0x32B0, symBinAddr: 0x100006B90, symSize: 0x40 }
  - { offsetInCU: 0xF5EF, offset: 0xF5EF, size: 0x8, addend: 0x0, symName: __ZNSt3__19allocatorIiE8allocateB7v160006Em, symObjAddr: 0x32F0, symBinAddr: 0x100006BD0, symSize: 0x80 }
  - { offsetInCU: 0xF623, offset: 0xF623, size: 0x8, addend: 0x0, symName: __ZNSt3__117__compressed_pairIPiNS_9allocatorIiEEE5firstB7v160006Ev, symObjAddr: 0x33F0, symBinAddr: 0x100006CD0, symSize: 0x20 }
  - { offsetInCU: 0xF649, offset: 0xF649, size: 0x8, addend: 0x0, symName: __ZNSt3__122__compressed_pair_elemIPiLi0ELb0EE5__getB7v160006Ev, symObjAddr: 0x3410, symBinAddr: 0x100006CF0, symSize: 0x10 }
  - { offsetInCU: 0xF688, offset: 0xF688, size: 0x8, addend: 0x0, symName: __ZNSt3__16vectorIiNS_9allocatorIiEEE21_ConstructTransactionC1B7v160006ERS3_m, symObjAddr: 0x3420, symBinAddr: 0x100006D00, symSize: 0x30 }
  - { offsetInCU: 0xF6D0, offset: 0xF6D0, size: 0x8, addend: 0x0, symName: __ZNSt3__16vectorIiNS_9allocatorIiEEE21_ConstructTransactionD1B7v160006Ev, symObjAddr: 0x3560, symBinAddr: 0x100006E40, symSize: 0x20 }
  - { offsetInCU: 0xF6FA, offset: 0xF6FA, size: 0x8, addend: 0x0, symName: __ZNSt3__16vectorIiNS_9allocatorIiEEE21_ConstructTransactionC2B7v160006ERS3_m, symObjAddr: 0x3580, symBinAddr: 0x100006E60, symSize: 0x40 }
  - { offsetInCU: 0xF742, offset: 0xF742, size: 0x8, addend: 0x0, symName: __ZNSt3__129_AllocatorDestroyRangeReverseINS_9allocatorIiEEPiEC1B7v160006ERS2_RS3_S6_, symObjAddr: 0x3620, symBinAddr: 0x100006F00, symSize: 0x40 }
  - { offsetInCU: 0xF799, offset: 0xF799, size: 0x8, addend: 0x0, symName: __ZNSt3__116allocator_traitsINS_9allocatorIiEEE9constructB7v160006IiJRiEvEEvRS2_PT_DpOT0_, symObjAddr: 0x3660, symBinAddr: 0x100006F40, symSize: 0x30 }
  - { offsetInCU: 0xF7F0, offset: 0xF7F0, size: 0x8, addend: 0x0, symName: __ZNSt3__128__exception_guard_exceptionsINS_29_AllocatorDestroyRangeReverseINS_9allocatorIiEEPiEEE10__completeB7v160006Ev, symObjAddr: 0x3690, symBinAddr: 0x100006F70, symSize: 0x20 }
  - { offsetInCU: 0xF816, offset: 0xF816, size: 0x8, addend: 0x0, symName: __ZNSt3__128__exception_guard_exceptionsINS_29_AllocatorDestroyRangeReverseINS_9allocatorIiEEPiEEED1B7v160006Ev, symObjAddr: 0x36B0, symBinAddr: 0x100006F90, symSize: 0x20 }
  - { offsetInCU: 0xF840, offset: 0xF840, size: 0x8, addend: 0x0, symName: __ZNSt3__128__exception_guard_exceptionsINS_29_AllocatorDestroyRangeReverseINS_9allocatorIiEEPiEEEC1B7v160006ES5_, symObjAddr: 0x36D0, symBinAddr: 0x100006FB0, symSize: 0x40 }
  - { offsetInCU: 0xF878, offset: 0xF878, size: 0x8, addend: 0x0, symName: __ZNSt3__128__exception_guard_exceptionsINS_29_AllocatorDestroyRangeReverseINS_9allocatorIiEEPiEEEC2B7v160006ES5_, symObjAddr: 0x3710, symBinAddr: 0x100006FF0, symSize: 0x30 }
  - { offsetInCU: 0xF8B0, offset: 0xF8B0, size: 0x8, addend: 0x0, symName: __ZNSt3__129_AllocatorDestroyRangeReverseINS_9allocatorIiEEPiEC2B7v160006ERS2_RS3_S6_, symObjAddr: 0x3740, symBinAddr: 0x100007020, symSize: 0x40 }
  - { offsetInCU: 0xF907, offset: 0xF907, size: 0x8, addend: 0x0, symName: __ZNSt3__19allocatorIiE9constructB7v160006IiJRiEEEvPT_DpOT0_, symObjAddr: 0x3780, symBinAddr: 0x100007060, symSize: 0x20 }
  - { offsetInCU: 0xF95D, offset: 0xF95D, size: 0x8, addend: 0x0, symName: __ZNSt3__128__exception_guard_exceptionsINS_29_AllocatorDestroyRangeReverseINS_9allocatorIiEEPiEEED2B7v160006Ev, symObjAddr: 0x37A0, symBinAddr: 0x100007080, symSize: 0x30 }
  - { offsetInCU: 0xF987, offset: 0xF987, size: 0x8, addend: 0x0, symName: __ZNKSt3__129_AllocatorDestroyRangeReverseINS_9allocatorIiEEPiEclB7v160006Ev, symObjAddr: 0x37D0, symBinAddr: 0x1000070B0, symSize: 0x60 }
  - { offsetInCU: 0xF9AD, offset: 0xF9AD, size: 0x8, addend: 0x0, symName: __ZNSt3__116reverse_iteratorIPiEC1B7v160006ES1_, symObjAddr: 0x38A0, symBinAddr: 0x100007180, symSize: 0x30 }
  - { offsetInCU: 0xF9E5, offset: 0xF9E5, size: 0x8, addend: 0x0, symName: __ZNSt3__116reverse_iteratorIPiEppB7v160006Ev, symObjAddr: 0x3930, symBinAddr: 0x100007210, symSize: 0x20 }
  - { offsetInCU: 0xFA0B, offset: 0xFA0B, size: 0x8, addend: 0x0, symName: __ZNKSt3__116reverse_iteratorIPiE4baseB7v160006Ev, symObjAddr: 0x3950, symBinAddr: 0x100007230, symSize: 0x20 }
  - { offsetInCU: 0xFA36, offset: 0xFA36, size: 0x8, addend: 0x0, symName: __ZNSt3__119__to_address_helperINS_16reverse_iteratorIPiEEvE6__callB7v160006ERKS3_, symObjAddr: 0x3970, symBinAddr: 0x100007250, symSize: 0x50 }
  - { offsetInCU: 0xFA59, offset: 0xFA59, size: 0x8, addend: 0x0, symName: __ZNKSt3__116reverse_iteratorIPiEptB7v160006Ev, symObjAddr: 0x39C0, symBinAddr: 0x1000072A0, symSize: 0x20 }
  - { offsetInCU: 0xFA7F, offset: 0xFA7F, size: 0x8, addend: 0x0, symName: __ZNKSt3__116reverse_iteratorIPiEdeB7v160006Ev, symObjAddr: 0x39E0, symBinAddr: 0x1000072C0, symSize: 0x30 }
  - { offsetInCU: 0xFAB3, offset: 0xFAB3, size: 0x8, addend: 0x0, symName: __ZNSt3__116reverse_iteratorIPiEC2B7v160006ES1_, symObjAddr: 0x3A10, symBinAddr: 0x1000072F0, symSize: 0x30 }
  - { offsetInCU: 0xFAEB, offset: 0xFAEB, size: 0x8, addend: 0x0, symName: __ZNSt3__16vectorIiNS_9allocatorIiEEE21_ConstructTransactionD2B7v160006Ev, symObjAddr: 0x3A40, symBinAddr: 0x100007320, symSize: 0x20 }
  - { offsetInCU: 0xFB15, offset: 0xFB15, size: 0x8, addend: 0x0, symName: __ZNSt3__128__exception_guard_exceptionsINS_6vectorIiNS_9allocatorIiEEE16__destroy_vectorEED2B7v160006Ev, symObjAddr: 0x3A60, symBinAddr: 0x100007340, symSize: 0x30 }
  - { offsetInCU: 0xFB3F, offset: 0xFB3F, size: 0x8, addend: 0x0, symName: __ZNSt3__111char_traitsIcE6lengthEPKc, symObjAddr: 0x3C80, symBinAddr: 0x100007560, symSize: 0x40 }
  - { offsetInCU: 0xFB80, offset: 0xFB80, size: 0x8, addend: 0x0, symName: __ZNKSt3__113basic_ostreamIcNS_11char_traitsIcEEE6sentrycvbB7v160006Ev, symObjAddr: 0x3CC0, symBinAddr: 0x1000075A0, symSize: 0x20 }
  - { offsetInCU: 0xFBA6, offset: 0xFBA6, size: 0x8, addend: 0x0, symName: __ZNSt3__119ostreambuf_iteratorIcNS_11char_traitsIcEEEC1B7v160006ERNS_13basic_ostreamIcS2_EE, symObjAddr: 0x3F00, symBinAddr: 0x1000077E0, symSize: 0x30 }
  - { offsetInCU: 0xFBDE, offset: 0xFBDE, size: 0x8, addend: 0x0, symName: __ZNKSt3__18ios_base5flagsB7v160006Ev, symObjAddr: 0x3F30, symBinAddr: 0x100007810, symSize: 0x20 }
  - { offsetInCU: 0xFC06, offset: 0xFC06, size: 0x8, addend: 0x0, symName: __ZNKSt3__19basic_iosIcNS_11char_traitsIcEEE4fillB7v160006Ev, symObjAddr: 0x3F50, symBinAddr: 0x100007830, symSize: 0x70 }
  - { offsetInCU: 0xFC2E, offset: 0xFC2E, size: 0x8, addend: 0x0, symName: __ZNKSt3__119ostreambuf_iteratorIcNS_11char_traitsIcEEE6failedB7v160006Ev, symObjAddr: 0x3FC0, symBinAddr: 0x1000078A0, symSize: 0x20 }
  - { offsetInCU: 0xFC54, offset: 0xFC54, size: 0x8, addend: 0x0, symName: __ZNSt3__19basic_iosIcNS_11char_traitsIcEEE8setstateB7v160006Ej, symObjAddr: 0x3FE0, symBinAddr: 0x1000078C0, symSize: 0x30 }
  - { offsetInCU: 0xFC89, offset: 0xFC89, size: 0x8, addend: 0x0, symName: __ZNKSt3__18ios_base5widthB7v160006Ev, symObjAddr: 0x4010, symBinAddr: 0x1000078F0, symSize: 0x20 }
  - { offsetInCU: 0xFCB1, offset: 0xFCB1, size: 0x8, addend: 0x0, symName: __ZNSt3__115basic_streambufIcNS_11char_traitsIcEEE5sputnB7v160006EPKcl, symObjAddr: 0x4030, symBinAddr: 0x100007910, symSize: 0x30 }
  - { offsetInCU: 0xFCF3, offset: 0xFCF3, size: 0x8, addend: 0x0, symName: __ZNSt3__112basic_stringIcNS_11char_traitsIcEENS_9allocatorIcEEEC1B7v160006Emc, symObjAddr: 0x4060, symBinAddr: 0x100007940, symSize: 0x30 }
  - { offsetInCU: 0xFD3B, offset: 0xFD3B, size: 0x8, addend: 0x0, symName: __ZNKSt3__112basic_stringIcNS_11char_traitsIcEENS_9allocatorIcEEE4dataB7v160006Ev, symObjAddr: 0x4090, symBinAddr: 0x100007970, symSize: 0x30 }
  - { offsetInCU: 0xFD61, offset: 0xFD61, size: 0x8, addend: 0x0, symName: __ZNSt3__18ios_base5widthB7v160006El, symObjAddr: 0x40C0, symBinAddr: 0x1000079A0, symSize: 0x30 }
  - { offsetInCU: 0xFDA7, offset: 0xFDA7, size: 0x8, addend: 0x0, symName: __ZNSt3__112basic_stringIcNS_11char_traitsIcEENS_9allocatorIcEEEC2B7v160006Emc, symObjAddr: 0x40F0, symBinAddr: 0x1000079D0, symSize: 0x50 }
  - { offsetInCU: 0xFDEF, offset: 0xFDEF, size: 0x8, addend: 0x0, symName: __ZNSt3__117__compressed_pairINS_12basic_stringIcNS_11char_traitsIcEENS_9allocatorIcEEE5__repES5_EC1B7v160006INS_18__default_init_tagESA_EEOT_OT0_, symObjAddr: 0x4140, symBinAddr: 0x100007A20, symSize: 0x30 }
  - { offsetInCU: 0xFE47, offset: 0xFE47, size: 0x8, addend: 0x0, symName: __ZNSt3__117__compressed_pairINS_12basic_stringIcNS_11char_traitsIcEENS_9allocatorIcEEE5__repES5_EC2B7v160006INS_18__default_init_tagESA_EEOT_OT0_, symObjAddr: 0x4180, symBinAddr: 0x100007A60, symSize: 0x30 }
  - { offsetInCU: 0xFE9F, offset: 0xFE9F, size: 0x8, addend: 0x0, symName: __ZNSt3__122__compressed_pair_elemINS_12basic_stringIcNS_11char_traitsIcEENS_9allocatorIcEEE5__repELi0ELb0EEC2B7v160006ENS_18__default_init_tagE, symObjAddr: 0x41B0, symBinAddr: 0x100007A90, symSize: 0x10 }
  - { offsetInCU: 0xFED4, offset: 0xFED4, size: 0x8, addend: 0x0, symName: __ZNSt3__122__compressed_pair_elemINS_9allocatorIcEELi1ELb1EEC2B7v160006ENS_18__default_init_tagE, symObjAddr: 0x41C0, symBinAddr: 0x100007AA0, symSize: 0x20 }
  - { offsetInCU: 0xFF09, offset: 0xFF09, size: 0x8, addend: 0x0, symName: __ZNSt3__19allocatorIcEC2B7v160006Ev, symObjAddr: 0x41E0, symBinAddr: 0x100007AC0, symSize: 0x20 }
  - { offsetInCU: 0xFF33, offset: 0xFF33, size: 0x8, addend: 0x0, symName: __ZNSt3__116__non_trivial_ifILb1ENS_9allocatorIcEEEC2B7v160006Ev, symObjAddr: 0x4200, symBinAddr: 0x100007AE0, symSize: 0x10 }
  - { offsetInCU: 0xFF5D, offset: 0xFF5D, size: 0x8, addend: 0x0, symName: __ZNKSt3__112basic_stringIcNS_11char_traitsIcEENS_9allocatorIcEEE13__get_pointerB7v160006Ev, symObjAddr: 0x4220, symBinAddr: 0x100007B00, symSize: 0x50 }
  - { offsetInCU: 0xFF83, offset: 0xFF83, size: 0x8, addend: 0x0, symName: __ZNKSt3__112basic_stringIcNS_11char_traitsIcEENS_9allocatorIcEEE9__is_longB7v160006Ev, symObjAddr: 0x4270, symBinAddr: 0x100007B50, symSize: 0x60 }
  - { offsetInCU: 0xFFA9, offset: 0xFFA9, size: 0x8, addend: 0x0, symName: __ZNKSt3__112basic_stringIcNS_11char_traitsIcEENS_9allocatorIcEEE18__get_long_pointerB7v160006Ev, symObjAddr: 0x42D0, symBinAddr: 0x100007BB0, symSize: 0x20 }
  - { offsetInCU: 0xFFCF, offset: 0xFFCF, size: 0x8, addend: 0x0, symName: __ZNKSt3__112basic_stringIcNS_11char_traitsIcEENS_9allocatorIcEEE19__get_short_pointerB7v160006Ev, symObjAddr: 0x42F0, symBinAddr: 0x100007BD0, symSize: 0x30 }
  - { offsetInCU: 0xFFF5, offset: 0xFFF5, size: 0x8, addend: 0x0, symName: __ZNKSt3__117__compressed_pairINS_12basic_stringIcNS_11char_traitsIcEENS_9allocatorIcEEE5__repES5_E5firstB7v160006Ev, symObjAddr: 0x4320, symBinAddr: 0x100007C00, symSize: 0x20 }
  - { offsetInCU: 0x1001B, offset: 0x1001B, size: 0x8, addend: 0x0, symName: __ZNKSt3__122__compressed_pair_elemINS_12basic_stringIcNS_11char_traitsIcEENS_9allocatorIcEEE5__repELi0ELb0EE5__getB7v160006Ev, symObjAddr: 0x4340, symBinAddr: 0x100007C20, symSize: 0x10 }
  - { offsetInCU: 0x10041, offset: 0x10041, size: 0x8, addend: 0x0, symName: __ZNSt3__114pointer_traitsIPKcE10pointer_toB7v160006ERS1_, symObjAddr: 0x4350, symBinAddr: 0x100007C30, symSize: 0x10 }
  - { offsetInCU: 0x10064, offset: 0x10064, size: 0x8, addend: 0x0, symName: __ZNSt3__119ostreambuf_iteratorIcNS_11char_traitsIcEEEC2B7v160006ERNS_13basic_ostreamIcS2_EE, symObjAddr: 0x4360, symBinAddr: 0x100007C40, symSize: 0x60 }
  - { offsetInCU: 0x1009C, offset: 0x1009C, size: 0x8, addend: 0x0, symName: __ZNKSt3__19basic_iosIcNS_11char_traitsIcEEE5rdbufB7v160006Ev, symObjAddr: 0x43C0, symBinAddr: 0x100007CA0, symSize: 0x20 }
  - { offsetInCU: 0x100C4, offset: 0x100C4, size: 0x8, addend: 0x0, symName: __ZNKSt3__18ios_base5rdbufB7v160006Ev, symObjAddr: 0x43E0, symBinAddr: 0x100007CC0, symSize: 0x20 }
  - { offsetInCU: 0x100EA, offset: 0x100EA, size: 0x8, addend: 0x0, symName: __ZNSt3__111char_traitsIcE11eq_int_typeEii, symObjAddr: 0x4400, symBinAddr: 0x100007CE0, symSize: 0x20 }
  - { offsetInCU: 0x1011B, offset: 0x1011B, size: 0x8, addend: 0x0, symName: __ZNSt3__111char_traitsIcE3eofEv, symObjAddr: 0x4420, symBinAddr: 0x100007D00, symSize: 0x10 }
  - { offsetInCU: 0x1012F, offset: 0x1012F, size: 0x8, addend: 0x0, symName: __ZNKSt3__19basic_iosIcNS_11char_traitsIcEEE5widenB7v160006Ec, symObjAddr: 0x4430, symBinAddr: 0x100007D10, symSize: 0x90 }
  - { offsetInCU: 0x1019D, offset: 0x1019D, size: 0x8, addend: 0x0, symName: __ZNKSt3__15ctypeIcE5widenB7v160006Ec, symObjAddr: 0x44F0, symBinAddr: 0x100007DD0, symSize: 0x30 }
  - { offsetInCU: 0x101D2, offset: 0x101D2, size: 0x8, addend: 0x0, symName: __ZNSt3__18ios_base8setstateB7v160006Ej, symObjAddr: 0x4520, symBinAddr: 0x100007E00, symSize: 0x30 }
  - { offsetInCU: 0x10209, offset: 0x10209, size: 0x8, addend: 0x0, symName: __ZNKSt3__112basic_stringIcNS_11char_traitsIcEENS_9allocatorIcEEE4sizeB7v160006Ev, symObjAddr: 0x4570, symBinAddr: 0x100007E50, symSize: 0x50 }
  - { offsetInCU: 0x1022F, offset: 0x1022F, size: 0x8, addend: 0x0, symName: __ZNKSt3__112basic_stringIcNS_11char_traitsIcEENS_9allocatorIcEEE15__get_long_sizeB7v160006Ev, symObjAddr: 0x45C0, symBinAddr: 0x100007EA0, symSize: 0x20 }
  - { offsetInCU: 0x10255, offset: 0x10255, size: 0x8, addend: 0x0, symName: __ZNKSt3__112basic_stringIcNS_11char_traitsIcEENS_9allocatorIcEEE16__get_short_sizeB7v160006Ev, symObjAddr: 0x45E0, symBinAddr: 0x100007EC0, symSize: 0x30 }
  - { offsetInCU: 0x1027B, offset: 0x1027B, size: 0x8, addend: 0x0, symName: __ZNSt3__19basic_iosIcNS_11char_traitsIcEEEC2B7v160006Ev, symObjAddr: 0x4610, symBinAddr: 0x100007EF0, symSize: 0x40 }
  - { offsetInCU: 0x102A5, offset: 0x102A5, size: 0x8, addend: 0x0, symName: __ZNSt3__113basic_istreamIcNS_11char_traitsIcEEEC2B7v160006EPNS_15basic_streambufIcS2_EE, symObjAddr: 0x4650, symBinAddr: 0x100007F30, symSize: 0x50 }
  - { offsetInCU: 0x102EA, offset: 0x102EA, size: 0x8, addend: 0x0, symName: __ZNSt3__113basic_filebufIcNS_11char_traitsIcEEE4openERKNS_12basic_stringIcS2_NS_9allocatorIcEEEEj, symObjAddr: 0x46A0, symBinAddr: 0x100007F80, symSize: 0x40 }
  - { offsetInCU: 0x1032E, offset: 0x1032E, size: 0x8, addend: 0x0, symName: __ZNSt3__18ios_baseC2B7v160006Ev, symObjAddr: 0x46E0, symBinAddr: 0x100007FC0, symSize: 0x20 }
  - { offsetInCU: 0x10358, offset: 0x10358, size: 0x8, addend: 0x0, symName: __ZNSt3__19basic_iosIcNS_11char_traitsIcEEE4initB7v160006EPNS_15basic_streambufIcS2_EE, symObjAddr: 0x4700, symBinAddr: 0x100007FE0, symSize: 0x50 }
  - { offsetInCU: 0x1038F, offset: 0x1038F, size: 0x8, addend: 0x0, symName: __ZNKSt3__113basic_filebufIcNS_11char_traitsIcEEE7is_openEv, symObjAddr: 0x4750, symBinAddr: 0x100008030, symSize: 0x20 }
  - { offsetInCU: 0x103B7, offset: 0x103B7, size: 0x8, addend: 0x0, symName: __ZNSt3__112basic_stringIcNS_11char_traitsIcEENS_9allocatorIcEEEC2B7v160006Ev, symObjAddr: 0x4770, symBinAddr: 0x100008050, symSize: 0x40 }
  - { offsetInCU: 0x103E1, offset: 0x103E1, size: 0x8, addend: 0x0, symName: __ZNSt3__112basic_stringIcNS_11char_traitsIcEENS_9allocatorIcEEE14__default_initB7v160006Ev, symObjAddr: 0x47B0, symBinAddr: 0x100008090, symSize: 0xC0 }
  - { offsetInCU: 0x10434, offset: 0x10434, size: 0x8, addend: 0x0, symName: __ZNSt3__117__compressed_pairINS_12basic_stringIcNS_11char_traitsIcEENS_9allocatorIcEEE5__repES5_E5firstB7v160006Ev, symObjAddr: 0x4870, symBinAddr: 0x100008150, symSize: 0x20 }
  - { offsetInCU: 0x1045A, offset: 0x1045A, size: 0x8, addend: 0x0, symName: __ZNSt3__112basic_stringIcNS_11char_traitsIcEENS_9allocatorIcEEE11__recommendB7v160006Em, symObjAddr: 0x4890, symBinAddr: 0x100008170, symSize: 0x90 }
  - { offsetInCU: 0x1048D, offset: 0x1048D, size: 0x8, addend: 0x0, symName: __ZNSt3__116allocator_traitsINS_9allocatorIcEEE8allocateB7v160006ERS2_m, symObjAddr: 0x4920, symBinAddr: 0x100008200, symSize: 0x30 }
  - { offsetInCU: 0x104C0, offset: 0x104C0, size: 0x8, addend: 0x0, symName: __ZNSt3__112basic_stringIcNS_11char_traitsIcEENS_9allocatorIcEEE7__allocB7v160006Ev, symObjAddr: 0x4950, symBinAddr: 0x100008230, symSize: 0x20 }
  - { offsetInCU: 0x104E6, offset: 0x104E6, size: 0x8, addend: 0x0, symName: __ZNSt3__112basic_stringIcNS_11char_traitsIcEENS_9allocatorIcEEE16__begin_lifetimeB7v160006EPcm, symObjAddr: 0x4970, symBinAddr: 0x100008250, symSize: 0x10 }
  - { offsetInCU: 0x10519, offset: 0x10519, size: 0x8, addend: 0x0, symName: __ZNSt3__112basic_stringIcNS_11char_traitsIcEENS_9allocatorIcEEE18__set_long_pointerB7v160006EPc, symObjAddr: 0x4980, symBinAddr: 0x100008260, symSize: 0x30 }
  - { offsetInCU: 0x1054E, offset: 0x1054E, size: 0x8, addend: 0x0, symName: __ZNSt3__112basic_stringIcNS_11char_traitsIcEENS_9allocatorIcEEE14__set_long_capB7v160006Em, symObjAddr: 0x49B0, symBinAddr: 0x100008290, symSize: 0x70 }
  - { offsetInCU: 0x10583, offset: 0x10583, size: 0x8, addend: 0x0, symName: __ZNSt3__112basic_stringIcNS_11char_traitsIcEENS_9allocatorIcEEE15__set_long_sizeB7v160006Em, symObjAddr: 0x4A20, symBinAddr: 0x100008300, symSize: 0x30 }
  - { offsetInCU: 0x105B8, offset: 0x105B8, size: 0x8, addend: 0x0, symName: __ZNSt3__122__compressed_pair_elemINS_12basic_stringIcNS_11char_traitsIcEENS_9allocatorIcEEE5__repELi0ELb0EE5__getB7v160006Ev, symObjAddr: 0x4A50, symBinAddr: 0x100008330, symSize: 0x10 }
  - { offsetInCU: 0x105DE, offset: 0x105DE, size: 0x8, addend: 0x0, symName: __ZNSt3__112basic_stringIcNS_11char_traitsIcEENS_9allocatorIcEEE10__align_itB7v160006ILm16EEEmm, symObjAddr: 0x4A60, symBinAddr: 0x100008340, symSize: 0x20 }
  - { offsetInCU: 0x1060C, offset: 0x1060C, size: 0x8, addend: 0x0, symName: __ZNSt3__19allocatorIcE8allocateB7v160006Em, symObjAddr: 0x4A80, symBinAddr: 0x100008360, symSize: 0x80 }
  - { offsetInCU: 0x1064A, offset: 0x1064A, size: 0x8, addend: 0x0, symName: __ZNSt3__116allocator_traitsINS_9allocatorIcEEE8max_sizeB7v160006IS2_vEEmRKS2_, symObjAddr: 0x4B00, symBinAddr: 0x1000083E0, symSize: 0x20 }
  - { offsetInCU: 0x10678, offset: 0x10678, size: 0x8, addend: 0x0, symName: __ZNKSt3__19allocatorIcE8max_sizeB7v160006Ev, symObjAddr: 0x4B20, symBinAddr: 0x100008400, symSize: 0x20 }
  - { offsetInCU: 0x1069E, offset: 0x1069E, size: 0x8, addend: 0x0, symName: __ZNSt3__117__compressed_pairINS_12basic_stringIcNS_11char_traitsIcEENS_9allocatorIcEEE5__repES5_E6secondB7v160006Ev, symObjAddr: 0x4B40, symBinAddr: 0x100008420, symSize: 0x20 }
  - { offsetInCU: 0x106C4, offset: 0x106C4, size: 0x8, addend: 0x0, symName: __ZNSt3__122__compressed_pair_elemINS_9allocatorIcEELi1ELb1EE5__getB7v160006Ev, symObjAddr: 0x4B60, symBinAddr: 0x100008440, symSize: 0x10 }
  - { offsetInCU: 0x10708, offset: 0x10708, size: 0x8, addend: 0x0, symName: __ZNKSt3__113basic_istreamIcNS_11char_traitsIcEEE6sentrycvbB7v160006Ev, symObjAddr: 0x4B70, symBinAddr: 0x100008450, symSize: 0x20 }
  - { offsetInCU: 0x1072E, offset: 0x1072E, size: 0x8, addend: 0x0, symName: __ZNSt3__112basic_stringIcNS_11char_traitsIcEENS_9allocatorIcEEE5clearB7v160006Ev, symObjAddr: 0x4B90, symBinAddr: 0x100008470, symSize: 0xA0 }
  - { offsetInCU: 0x10756, offset: 0x10756, size: 0x8, addend: 0x0, symName: __ZNSt3__115basic_streambufIcNS_11char_traitsIcEEE6sbumpcB7v160006Ev, symObjAddr: 0x4C30, symBinAddr: 0x100008510, symSize: 0x60 }
  - { offsetInCU: 0x1077C, offset: 0x1077C, size: 0x8, addend: 0x0, symName: __ZNSt3__111char_traitsIcE12to_char_typeEi, symObjAddr: 0x4C90, symBinAddr: 0x100008570, symSize: 0x10 }
  - { offsetInCU: 0x1079F, offset: 0x1079F, size: 0x8, addend: 0x0, symName: __ZNSt3__111char_traitsIcE2eqEcc, symObjAddr: 0x4CA0, symBinAddr: 0x100008580, symSize: 0x30 }
  - { offsetInCU: 0x107D0, offset: 0x107D0, size: 0x8, addend: 0x0, symName: __ZNKSt3__112basic_stringIcNS_11char_traitsIcEENS_9allocatorIcEEE8max_sizeB7v160006Ev, symObjAddr: 0x4CD0, symBinAddr: 0x1000085B0, symSize: 0xA0 }
  - { offsetInCU: 0x10823, offset: 0x10823, size: 0x8, addend: 0x0, symName: __ZNSt3__18ios_base18__setstate_nothrowB7v160006Ej, symObjAddr: 0x4D70, symBinAddr: 0x100008650, symSize: 0x50 }
  - { offsetInCU: 0x10858, offset: 0x10858, size: 0x8, addend: 0x0, symName: __ZNKSt3__19basic_iosIcNS_11char_traitsIcEEE10exceptionsB7v160006Ev, symObjAddr: 0x4DC0, symBinAddr: 0x1000086A0, symSize: 0x20 }
  - { offsetInCU: 0x1087E, offset: 0x1087E, size: 0x8, addend: 0x0, symName: __ZNSt3__111char_traitsIcE6assignERcRKc, symObjAddr: 0x4DF0, symBinAddr: 0x1000086D0, symSize: 0x20 }
  - { offsetInCU: 0x108AF, offset: 0x108AF, size: 0x8, addend: 0x0, symName: __ZNSt3__112basic_stringIcNS_11char_traitsIcEENS_9allocatorIcEEE18__get_long_pointerB7v160006Ev, symObjAddr: 0x4E10, symBinAddr: 0x1000086F0, symSize: 0x20 }
  - { offsetInCU: 0x108D5, offset: 0x108D5, size: 0x8, addend: 0x0, symName: __ZNSt3__112basic_stringIcNS_11char_traitsIcEENS_9allocatorIcEEE19__get_short_pointerB7v160006Ev, symObjAddr: 0x4E30, symBinAddr: 0x100008710, symSize: 0x30 }
  - { offsetInCU: 0x108FB, offset: 0x108FB, size: 0x8, addend: 0x0, symName: __ZNSt3__112basic_stringIcNS_11char_traitsIcEENS_9allocatorIcEEE16__set_short_sizeB7v160006Em, symObjAddr: 0x4E60, symBinAddr: 0x100008740, symSize: 0x50 }
  - { offsetInCU: 0x10930, offset: 0x10930, size: 0x8, addend: 0x0, symName: __ZNSt3__114pointer_traitsIPcE10pointer_toB7v160006ERc, symObjAddr: 0x4EB0, symBinAddr: 0x100008790, symSize: 0x10 }
  - { offsetInCU: 0x10953, offset: 0x10953, size: 0x8, addend: 0x0, symName: __ZNSt3__111char_traitsIcE11to_int_typeEc, symObjAddr: 0x4EC0, symBinAddr: 0x1000087A0, symSize: 0x10 }
  - { offsetInCU: 0x10976, offset: 0x10976, size: 0x8, addend: 0x0, symName: __ZNKSt3__112basic_stringIcNS_11char_traitsIcEENS_9allocatorIcEEE7__allocB7v160006Ev, symObjAddr: 0x4ED0, symBinAddr: 0x1000087B0, symSize: 0x20 }
  - { offsetInCU: 0x1099C, offset: 0x1099C, size: 0x8, addend: 0x0, symName: __ZNSt3__114numeric_limitsImE3maxB7v160006Ev, symObjAddr: 0x4EF0, symBinAddr: 0x1000087D0, symSize: 0x10 }
  - { offsetInCU: 0x109B0, offset: 0x109B0, size: 0x8, addend: 0x0, symName: __ZNKSt3__117__compressed_pairINS_12basic_stringIcNS_11char_traitsIcEENS_9allocatorIcEEE5__repES5_E6secondB7v160006Ev, symObjAddr: 0x4F00, symBinAddr: 0x1000087E0, symSize: 0x20 }
  - { offsetInCU: 0x109D6, offset: 0x109D6, size: 0x8, addend: 0x0, symName: __ZNKSt3__122__compressed_pair_elemINS_9allocatorIcEELi1ELb1EE5__getB7v160006Ev, symObjAddr: 0x4F20, symBinAddr: 0x100008800, symSize: 0x10 }
  - { offsetInCU: 0x109FC, offset: 0x109FC, size: 0x8, addend: 0x0, symName: __ZNSt3__123__libcpp_numeric_limitsImLb1EE3maxB7v160006Ev, symObjAddr: 0x4F30, symBinAddr: 0x100008810, symSize: 0x10 }
  - { offsetInCU: 0x10A10, offset: 0x10A10, size: 0x8, addend: 0x0, symName: __ZNKSt3__18ios_base10exceptionsB7v160006Ev, symObjAddr: 0x4F40, symBinAddr: 0x100008820, symSize: 0x20 }
  - { offsetInCU: 0x10A38, offset: 0x10A38, size: 0x8, addend: 0x0, symName: __ZNKSt3__19basic_iosIcNS_11char_traitsIcEEE4failB7v160006Ev, symObjAddr: 0x4F60, symBinAddr: 0x100008840, symSize: 0x20 }
  - { offsetInCU: 0x10A5E, offset: 0x10A5E, size: 0x8, addend: 0x0, symName: __ZNKSt3__18ios_base4failB7v160006Ev, symObjAddr: 0x4F80, symBinAddr: 0x100008860, symSize: 0x20 }
  - { offsetInCU: 0x10A86, offset: 0x10A86, size: 0x8, addend: 0x0, symName: __ZNSt3__16vectorI12traceprofileNS_9allocatorIS1_EEE9__end_capB7v160006Ev, symObjAddr: 0x4FA0, symBinAddr: 0x100008880, symSize: 0x20 }
  - { offsetInCU: 0x10AAC, offset: 0x10AAC, size: 0x8, addend: 0x0, symName: __ZNSt3__16vectorI12traceprofileNS_9allocatorIS1_EEE22__construct_one_at_endB7v160006IJRKS1_EEEvDpOT_, symObjAddr: 0x4FC0, symBinAddr: 0x1000088A0, symSize: 0xA0 }
  - { offsetInCU: 0x10AFB, offset: 0x10AFB, size: 0x8, addend: 0x0, symName: __ZNSt3__16vectorI12traceprofileNS_9allocatorIS1_EEE21__push_back_slow_pathIRKS1_EEvOT_, symObjAddr: 0x5060, symBinAddr: 0x100008940, symSize: 0xE0 }
  - { offsetInCU: 0x10B59, offset: 0x10B59, size: 0x8, addend: 0x0, symName: __ZNSt3__117__compressed_pairIP12traceprofileNS_9allocatorIS1_EEE5firstB7v160006Ev, symObjAddr: 0x5140, symBinAddr: 0x100008A20, symSize: 0x20 }
  - { offsetInCU: 0x10B7F, offset: 0x10B7F, size: 0x8, addend: 0x0, symName: __ZNSt3__122__compressed_pair_elemIP12traceprofileLi0ELb0EE5__getB7v160006Ev, symObjAddr: 0x5160, symBinAddr: 0x100008A40, symSize: 0x10 }
  - { offsetInCU: 0x10BBE, offset: 0x10BBE, size: 0x8, addend: 0x0, symName: __ZNSt3__16vectorI12traceprofileNS_9allocatorIS1_EEE21_ConstructTransactionC1B7v160006ERS4_m, symObjAddr: 0x5170, symBinAddr: 0x100008A50, symSize: 0x30 }
  - { offsetInCU: 0x10C06, offset: 0x10C06, size: 0x8, addend: 0x0, symName: __ZNSt3__116allocator_traitsINS_9allocatorI12traceprofileEEE9constructB7v160006IS2_JRKS2_EvEEvRS3_PT_DpOT0_, symObjAddr: 0x51A0, symBinAddr: 0x100008A80, symSize: 0x30 }
  - { offsetInCU: 0x10C5D, offset: 0x10C5D, size: 0x8, addend: 0x0, symName: __ZNSt3__16vectorI12traceprofileNS_9allocatorIS1_EEE7__allocB7v160006Ev, symObjAddr: 0x51D0, symBinAddr: 0x100008AB0, symSize: 0x20 }
  - { offsetInCU: 0x10C83, offset: 0x10C83, size: 0x8, addend: 0x0, symName: __ZNSt3__16vectorI12traceprofileNS_9allocatorIS1_EEE21_ConstructTransactionD1B7v160006Ev, symObjAddr: 0x5200, symBinAddr: 0x100008AE0, symSize: 0x20 }
  - { offsetInCU: 0x10CAD, offset: 0x10CAD, size: 0x8, addend: 0x0, symName: __ZNSt3__16vectorI12traceprofileNS_9allocatorIS1_EEE21_ConstructTransactionC2B7v160006ERS4_m, symObjAddr: 0x5220, symBinAddr: 0x100008B00, symSize: 0x40 }
  - { offsetInCU: 0x10CF5, offset: 0x10CF5, size: 0x8, addend: 0x0, symName: __ZNSt3__19allocatorI12traceprofileE9constructB7v160006IS1_JRKS1_EEEvPT_DpOT0_, symObjAddr: 0x5260, symBinAddr: 0x100008B40, symSize: 0x30 }
  - { offsetInCU: 0x10D4B, offset: 0x10D4B, size: 0x8, addend: 0x0, symName: __ZNSt3__117__compressed_pairIP12traceprofileNS_9allocatorIS1_EEE6secondB7v160006Ev, symObjAddr: 0x5290, symBinAddr: 0x100008B70, symSize: 0x20 }
  - { offsetInCU: 0x10D71, offset: 0x10D71, size: 0x8, addend: 0x0, symName: __ZNSt3__122__compressed_pair_elemINS_9allocatorI12traceprofileEELi1ELb1EE5__getB7v160006Ev, symObjAddr: 0x52B0, symBinAddr: 0x100008B90, symSize: 0x10 }
  - { offsetInCU: 0x10D97, offset: 0x10D97, size: 0x8, addend: 0x0, symName: __ZNSt3__16vectorI12traceprofileNS_9allocatorIS1_EEE21_ConstructTransactionD2B7v160006Ev, symObjAddr: 0x52C0, symBinAddr: 0x100008BA0, symSize: 0x20 }
  - { offsetInCU: 0x10DC1, offset: 0x10DC1, size: 0x8, addend: 0x0, symName: __ZNKSt3__16vectorI12traceprofileNS_9allocatorIS1_EEE11__recommendB7v160006Em, symObjAddr: 0x52E0, symBinAddr: 0x100008BC0, symSize: 0xA0 }
  - { offsetInCU: 0x10E16, offset: 0x10E16, size: 0x8, addend: 0x0, symName: __ZNSt3__114__split_bufferI12traceprofileRNS_9allocatorIS1_EEEC1EmmS4_, symObjAddr: 0x5380, symBinAddr: 0x100008C60, symSize: 0x40 }
  - { offsetInCU: 0x10E6C, offset: 0x10E6C, size: 0x8, addend: 0x0, symName: __ZNSt3__114__split_bufferI12traceprofileRNS_9allocatorIS1_EEED1Ev, symObjAddr: 0x54F0, symBinAddr: 0x100008DD0, symSize: 0x20 }
  - { offsetInCU: 0x10E98, offset: 0x10E98, size: 0x8, addend: 0x0, symName: __ZNKSt3__16vectorI12traceprofileNS_9allocatorIS1_EEE8max_sizeEv, symObjAddr: 0x5510, symBinAddr: 0x100008DF0, symSize: 0x70 }
  - { offsetInCU: 0x10EC0, offset: 0x10EC0, size: 0x8, addend: 0x0, symName: __ZNKSt3__16vectorI12traceprofileNS_9allocatorIS1_EEE20__throw_length_errorB7v160006Ev, symObjAddr: 0x5580, symBinAddr: 0x100008E60, symSize: 0x20 }
  - { offsetInCU: 0x10EE6, offset: 0x10EE6, size: 0x8, addend: 0x0, symName: __ZNKSt3__16vectorI12traceprofileNS_9allocatorIS1_EEE8capacityB7v160006Ev, symObjAddr: 0x55A0, symBinAddr: 0x100008E80, symSize: 0x40 }
  - { offsetInCU: 0x10F16, offset: 0x10F16, size: 0x8, addend: 0x0, symName: __ZNSt3__116allocator_traitsINS_9allocatorI12traceprofileEEE8max_sizeB7v160006IS3_vEEmRKS3_, symObjAddr: 0x5610, symBinAddr: 0x100008EF0, symSize: 0x20 }
  - { offsetInCU: 0x10F44, offset: 0x10F44, size: 0x8, addend: 0x0, symName: __ZNKSt3__16vectorI12traceprofileNS_9allocatorIS1_EEE7__allocB7v160006Ev, symObjAddr: 0x5630, symBinAddr: 0x100008F10, symSize: 0x20 }
  - { offsetInCU: 0x10F6A, offset: 0x10F6A, size: 0x8, addend: 0x0, symName: __ZNKSt3__19allocatorI12traceprofileE8max_sizeB7v160006Ev, symObjAddr: 0x5650, symBinAddr: 0x100008F30, symSize: 0x20 }
  - { offsetInCU: 0x10F90, offset: 0x10F90, size: 0x8, addend: 0x0, symName: __ZNKSt3__117__compressed_pairIP12traceprofileNS_9allocatorIS1_EEE6secondB7v160006Ev, symObjAddr: 0x5670, symBinAddr: 0x100008F50, symSize: 0x20 }
  - { offsetInCU: 0x10FB6, offset: 0x10FB6, size: 0x8, addend: 0x0, symName: __ZNKSt3__122__compressed_pair_elemINS_9allocatorI12traceprofileEELi1ELb1EE5__getB7v160006Ev, symObjAddr: 0x5690, symBinAddr: 0x100008F70, symSize: 0x10 }
  - { offsetInCU: 0x10FDC, offset: 0x10FDC, size: 0x8, addend: 0x0, symName: __ZNKSt3__16vectorI12traceprofileNS_9allocatorIS1_EEE9__end_capB7v160006Ev, symObjAddr: 0x56A0, symBinAddr: 0x100008F80, symSize: 0x20 }
  - { offsetInCU: 0x11002, offset: 0x11002, size: 0x8, addend: 0x0, symName: __ZNKSt3__117__compressed_pairIP12traceprofileNS_9allocatorIS1_EEE5firstB7v160006Ev, symObjAddr: 0x56C0, symBinAddr: 0x100008FA0, symSize: 0x20 }
  - { offsetInCU: 0x11028, offset: 0x11028, size: 0x8, addend: 0x0, symName: __ZNKSt3__122__compressed_pair_elemIP12traceprofileLi0ELb0EE5__getB7v160006Ev, symObjAddr: 0x56E0, symBinAddr: 0x100008FC0, symSize: 0x10 }
  - { offsetInCU: 0x1104E, offset: 0x1104E, size: 0x8, addend: 0x0, symName: __ZNSt3__114__split_bufferI12traceprofileRNS_9allocatorIS1_EEEC2EmmS4_, symObjAddr: 0x5740, symBinAddr: 0x100009020, symSize: 0xD0 }
  - { offsetInCU: 0x110C2, offset: 0x110C2, size: 0x8, addend: 0x0, symName: __ZNSt3__117__compressed_pairIP12traceprofileRNS_9allocatorIS1_EEEC1B7v160006IDnS5_EEOT_OT0_, symObjAddr: 0x5810, symBinAddr: 0x1000090F0, symSize: 0x30 }
  - { offsetInCU: 0x1111A, offset: 0x1111A, size: 0x8, addend: 0x0, symName: __ZNSt3__114__split_bufferI12traceprofileRNS_9allocatorIS1_EEE7__allocB7v160006Ev, symObjAddr: 0x5880, symBinAddr: 0x100009160, symSize: 0x20 }
  - { offsetInCU: 0x11140, offset: 0x11140, size: 0x8, addend: 0x0, symName: __ZNSt3__114__split_bufferI12traceprofileRNS_9allocatorIS1_EEE9__end_capB7v160006Ev, symObjAddr: 0x58A0, symBinAddr: 0x100009180, symSize: 0x20 }
  - { offsetInCU: 0x11166, offset: 0x11166, size: 0x8, addend: 0x0, symName: __ZNSt3__117__compressed_pairIP12traceprofileRNS_9allocatorIS1_EEEC2B7v160006IDnS5_EEOT_OT0_, symObjAddr: 0x58C0, symBinAddr: 0x1000091A0, symSize: 0x40 }
  - { offsetInCU: 0x111BE, offset: 0x111BE, size: 0x8, addend: 0x0, symName: __ZNSt3__122__compressed_pair_elemIP12traceprofileLi0ELb0EEC2B7v160006IDnvEEOT_, symObjAddr: 0x5900, symBinAddr: 0x1000091E0, symSize: 0x20 }
  - { offsetInCU: 0x11200, offset: 0x11200, size: 0x8, addend: 0x0, symName: __ZNSt3__122__compressed_pair_elemIRNS_9allocatorI12traceprofileEELi1ELb0EEC2B7v160006IS4_vEEOT_, symObjAddr: 0x5920, symBinAddr: 0x100009200, symSize: 0x20 }
  - { offsetInCU: 0x11242, offset: 0x11242, size: 0x8, addend: 0x0, symName: __ZNSt3__19allocatorI12traceprofileE8allocateB7v160006Em, symObjAddr: 0x5940, symBinAddr: 0x100009220, symSize: 0x80 }
  - { offsetInCU: 0x11276, offset: 0x11276, size: 0x8, addend: 0x0, symName: __ZNSt3__117__compressed_pairIP12traceprofileRNS_9allocatorIS1_EEE6secondB7v160006Ev, symObjAddr: 0x59C0, symBinAddr: 0x1000092A0, symSize: 0x20 }
  - { offsetInCU: 0x1129C, offset: 0x1129C, size: 0x8, addend: 0x0, symName: __ZNSt3__122__compressed_pair_elemIRNS_9allocatorI12traceprofileEELi1ELb0EE5__getB7v160006Ev, symObjAddr: 0x59E0, symBinAddr: 0x1000092C0, symSize: 0x20 }
  - { offsetInCU: 0x112C2, offset: 0x112C2, size: 0x8, addend: 0x0, symName: __ZNSt3__117__compressed_pairIP12traceprofileRNS_9allocatorIS1_EEE5firstB7v160006Ev, symObjAddr: 0x5A00, symBinAddr: 0x1000092E0, symSize: 0x20 }
  - { offsetInCU: 0x112E8, offset: 0x112E8, size: 0x8, addend: 0x0, symName: __ZNKSt3__16vectorI12traceprofileNS_9allocatorIS1_EEE17__annotate_deleteB7v160006Ev, symObjAddr: 0x5A20, symBinAddr: 0x100009300, symSize: 0xC0 }
  - { offsetInCU: 0x1130E, offset: 0x1130E, size: 0x8, addend: 0x0, symName: __ZNSt3__116reverse_iteratorIP12traceprofileEC1B7v160006ES2_, symObjAddr: 0x5C70, symBinAddr: 0x100009550, symSize: 0x30 }
  - { offsetInCU: 0x11346, offset: 0x11346, size: 0x8, addend: 0x0, symName: __ZNKSt3__116reverse_iteratorIP12traceprofileE4baseB7v160006Ev, symObjAddr: 0x5CA0, symBinAddr: 0x100009580, symSize: 0x20 }
  - { offsetInCU: 0x1136C, offset: 0x1136C, size: 0x8, addend: 0x0, symName: __ZNKSt3__16vectorI12traceprofileNS_9allocatorIS1_EEE14__annotate_newB7v160006Em, symObjAddr: 0x5D00, symBinAddr: 0x1000095E0, symSize: 0xB0 }
  - { offsetInCU: 0x113A1, offset: 0x113A1, size: 0x8, addend: 0x0, symName: __ZNKSt3__16vectorI12traceprofileNS_9allocatorIS1_EEE31__annotate_contiguous_containerB7v160006EPKvS6_S6_S6_, symObjAddr: 0x5DC0, symBinAddr: 0x1000096A0, symSize: 0x20 }
  - { offsetInCU: 0x113F3, offset: 0x113F3, size: 0x8, addend: 0x0, symName: __ZNKSt3__16vectorI12traceprofileNS_9allocatorIS1_EEE4dataB7v160006Ev, symObjAddr: 0x5DE0, symBinAddr: 0x1000096C0, symSize: 0x20 }
  - { offsetInCU: 0x11419, offset: 0x11419, size: 0x8, addend: 0x0, symName: __ZNSt3__129_AllocatorDestroyRangeReverseINS_9allocatorI12traceprofileEENS_16reverse_iteratorIPS2_EEEC1B7v160006ERS3_RS6_S9_, symObjAddr: 0x5E60, symBinAddr: 0x100009740, symSize: 0x40 }
  - { offsetInCU: 0x11470, offset: 0x11470, size: 0x8, addend: 0x0, symName: __ZNKSt3__116reverse_iteratorIP12traceprofileEdeB7v160006Ev, symObjAddr: 0x5F00, symBinAddr: 0x1000097E0, symSize: 0x30 }
  - { offsetInCU: 0x114A4, offset: 0x114A4, size: 0x8, addend: 0x0, symName: __ZNSt3__116reverse_iteratorIP12traceprofileEppB7v160006Ev, symObjAddr: 0x5F30, symBinAddr: 0x100009810, symSize: 0x20 }
  - { offsetInCU: 0x114CA, offset: 0x114CA, size: 0x8, addend: 0x0, symName: __ZNSt3__128__exception_guard_exceptionsINS_29_AllocatorDestroyRangeReverseINS_9allocatorI12traceprofileEENS_16reverse_iteratorIPS3_EEEEE10__completeB7v160006Ev, symObjAddr: 0x5F50, symBinAddr: 0x100009830, symSize: 0x20 }
  - { offsetInCU: 0x114F0, offset: 0x114F0, size: 0x8, addend: 0x0, symName: __ZNSt3__128__exception_guard_exceptionsINS_29_AllocatorDestroyRangeReverseINS_9allocatorI12traceprofileEENS_16reverse_iteratorIPS3_EEEEED1B7v160006Ev, symObjAddr: 0x5F70, symBinAddr: 0x100009850, symSize: 0x20 }
  - { offsetInCU: 0x1151A, offset: 0x1151A, size: 0x8, addend: 0x0, symName: __ZNSt3__128__exception_guard_exceptionsINS_29_AllocatorDestroyRangeReverseINS_9allocatorI12traceprofileEENS_16reverse_iteratorIPS3_EEEEEC1B7v160006ES8_, symObjAddr: 0x5F90, symBinAddr: 0x100009870, symSize: 0x40 }
  - { offsetInCU: 0x11552, offset: 0x11552, size: 0x8, addend: 0x0, symName: __ZNSt3__128__exception_guard_exceptionsINS_29_AllocatorDestroyRangeReverseINS_9allocatorI12traceprofileEENS_16reverse_iteratorIPS3_EEEEEC2B7v160006ES8_, symObjAddr: 0x5FD0, symBinAddr: 0x1000098B0, symSize: 0x30 }
  - { offsetInCU: 0x1158A, offset: 0x1158A, size: 0x8, addend: 0x0, symName: __ZNSt3__129_AllocatorDestroyRangeReverseINS_9allocatorI12traceprofileEENS_16reverse_iteratorIPS2_EEEC2B7v160006ERS3_RS6_S9_, symObjAddr: 0x6000, symBinAddr: 0x1000098E0, symSize: 0x40 }
  - { offsetInCU: 0x115E6, offset: 0x115E6, size: 0x8, addend: 0x0, symName: __ZNSt3__119__to_address_helperINS_16reverse_iteratorIP12traceprofileEEvE6__callB7v160006ERKS4_, symObjAddr: 0x6040, symBinAddr: 0x100009920, symSize: 0x50 }
  - { offsetInCU: 0x11609, offset: 0x11609, size: 0x8, addend: 0x0, symName: __ZNKSt3__116reverse_iteratorIP12traceprofileEptB7v160006Ev, symObjAddr: 0x6090, symBinAddr: 0x100009970, symSize: 0x20 }
  - { offsetInCU: 0x1162F, offset: 0x1162F, size: 0x8, addend: 0x0, symName: __ZNSt3__128__exception_guard_exceptionsINS_29_AllocatorDestroyRangeReverseINS_9allocatorI12traceprofileEENS_16reverse_iteratorIPS3_EEEEED2B7v160006Ev, symObjAddr: 0x60B0, symBinAddr: 0x100009990, symSize: 0x30 }
  - { offsetInCU: 0x11659, offset: 0x11659, size: 0x8, addend: 0x0, symName: __ZNKSt3__129_AllocatorDestroyRangeReverseINS_9allocatorI12traceprofileEENS_16reverse_iteratorIPS2_EEEclB7v160006Ev, symObjAddr: 0x60E0, symBinAddr: 0x1000099C0, symSize: 0xF0 }
  - { offsetInCU: 0x11680, offset: 0x11680, size: 0x8, addend: 0x0, symName: __ZNSt3__116reverse_iteratorINS0_IP12traceprofileEEEC1B7v160006ES3_, symObjAddr: 0x6240, symBinAddr: 0x100009B20, symSize: 0x30 }
  - { offsetInCU: 0x116B8, offset: 0x116B8, size: 0x8, addend: 0x0, symName: __ZNSt3__116allocator_traitsINS_9allocatorI12traceprofileEEE7destroyB7v160006IS2_vEEvRS3_PT_, symObjAddr: 0x62C0, symBinAddr: 0x100009BA0, symSize: 0x30 }
  - { offsetInCU: 0x116F5, offset: 0x116F5, size: 0x8, addend: 0x0, symName: __ZNSt3__116reverse_iteratorINS0_IP12traceprofileEEEppB7v160006Ev, symObjAddr: 0x6310, symBinAddr: 0x100009BF0, symSize: 0x30 }
  - { offsetInCU: 0x1171B, offset: 0x1171B, size: 0x8, addend: 0x0, symName: __ZNKSt3__116reverse_iteratorINS0_IP12traceprofileEEE4baseB7v160006Ev, symObjAddr: 0x6340, symBinAddr: 0x100009C20, symSize: 0x20 }
  - { offsetInCU: 0x11741, offset: 0x11741, size: 0x8, addend: 0x0, symName: __ZNSt3__19allocatorI12traceprofileE7destroyB7v160006EPS1_, symObjAddr: 0x6360, symBinAddr: 0x100009C40, symSize: 0x20 }
  - { offsetInCU: 0x1177A, offset: 0x1177A, size: 0x8, addend: 0x0, symName: __ZNSt3__119__to_address_helperINS_16reverse_iteratorINS1_IP12traceprofileEEEEvE6__callB7v160006ERKS5_, symObjAddr: 0x6380, symBinAddr: 0x100009C60, symSize: 0x50 }
  - { offsetInCU: 0x1179D, offset: 0x1179D, size: 0x8, addend: 0x0, symName: __ZNKSt3__116reverse_iteratorINS0_IP12traceprofileEEEptB7v160006Ev, symObjAddr: 0x63D0, symBinAddr: 0x100009CB0, symSize: 0x20 }
  - { offsetInCU: 0x117C3, offset: 0x117C3, size: 0x8, addend: 0x0, symName: __ZNKSt3__116reverse_iteratorINS0_IP12traceprofileEEEdeB7v160006Ev, symObjAddr: 0x63F0, symBinAddr: 0x100009CD0, symSize: 0x40 }
  - { offsetInCU: 0x117F7, offset: 0x117F7, size: 0x8, addend: 0x0, symName: __ZNSt3__116reverse_iteratorIP12traceprofileEmmB7v160006Ev, symObjAddr: 0x6430, symBinAddr: 0x100009D10, symSize: 0x20 }
  - { offsetInCU: 0x1181D, offset: 0x1181D, size: 0x8, addend: 0x0, symName: __ZNSt3__116reverse_iteratorINS0_IP12traceprofileEEEC2B7v160006ES3_, symObjAddr: 0x6450, symBinAddr: 0x100009D30, symSize: 0x40 }
  - { offsetInCU: 0x11855, offset: 0x11855, size: 0x8, addend: 0x0, symName: __ZNSt3__116reverse_iteratorIP12traceprofileEC2B7v160006ES2_, symObjAddr: 0x6490, symBinAddr: 0x100009D70, symSize: 0x30 }
  - { offsetInCU: 0x1188D, offset: 0x1188D, size: 0x8, addend: 0x0, symName: __ZNSt3__114__split_bufferI12traceprofileRNS_9allocatorIS1_EEED2Ev, symObjAddr: 0x64C0, symBinAddr: 0x100009DA0, symSize: 0x60 }
  - { offsetInCU: 0x118B9, offset: 0x118B9, size: 0x8, addend: 0x0, symName: __ZNSt3__114__split_bufferI12traceprofileRNS_9allocatorIS1_EEE5clearB7v160006Ev, symObjAddr: 0x6520, symBinAddr: 0x100009E00, symSize: 0x20 }
  - { offsetInCU: 0x118DF, offset: 0x118DF, size: 0x8, addend: 0x0, symName: __ZNSt3__116allocator_traitsINS_9allocatorI12traceprofileEEE10deallocateB7v160006ERS3_PS2_m, symObjAddr: 0x6540, symBinAddr: 0x100009E20, symSize: 0x30 }
  - { offsetInCU: 0x11921, offset: 0x11921, size: 0x8, addend: 0x0, symName: __ZNKSt3__114__split_bufferI12traceprofileRNS_9allocatorIS1_EEE8capacityB7v160006Ev, symObjAddr: 0x6570, symBinAddr: 0x100009E50, symSize: 0x40 }
  - { offsetInCU: 0x11947, offset: 0x11947, size: 0x8, addend: 0x0, symName: __ZNSt3__114__split_bufferI12traceprofileRNS_9allocatorIS1_EEE17__destruct_at_endB7v160006EPS1_, symObjAddr: 0x65B0, symBinAddr: 0x100009E90, symSize: 0x30 }
  - { offsetInCU: 0x1197B, offset: 0x1197B, size: 0x8, addend: 0x0, symName: __ZNSt3__114__split_bufferI12traceprofileRNS_9allocatorIS1_EEE17__destruct_at_endB7v160006EPS1_NS_17integral_constantIbLb0EEE, symObjAddr: 0x65E0, symBinAddr: 0x100009EC0, symSize: 0x90 }
  - { offsetInCU: 0x119BC, offset: 0x119BC, size: 0x8, addend: 0x0, symName: __ZNSt3__19allocatorI12traceprofileE10deallocateB7v160006EPS1_m, symObjAddr: 0x6670, symBinAddr: 0x100009F50, symSize: 0x80 }
  - { offsetInCU: 0x119FE, offset: 0x119FE, size: 0x8, addend: 0x0, symName: __ZNKSt3__114__split_bufferI12traceprofileRNS_9allocatorIS1_EEE9__end_capB7v160006Ev, symObjAddr: 0x66F0, symBinAddr: 0x100009FD0, symSize: 0x20 }
  - { offsetInCU: 0x11A24, offset: 0x11A24, size: 0x8, addend: 0x0, symName: __ZNKSt3__117__compressed_pairIP12traceprofileRNS_9allocatorIS1_EEE5firstB7v160006Ev, symObjAddr: 0x6710, symBinAddr: 0x100009FF0, symSize: 0x20 }
  - { offsetInCU: 0x11A4A, offset: 0x11A4A, size: 0x8, addend: 0x0, symName: __ZNSt3__16vectorIiNS_9allocatorIiEEE22__construct_one_at_endB7v160006IJRKiEEEvDpOT_, symObjAddr: 0x6730, symBinAddr: 0x10000A010, symSize: 0xA0 }
  - { offsetInCU: 0x11A99, offset: 0x11A99, size: 0x8, addend: 0x0, symName: __ZNSt3__16vectorIiNS_9allocatorIiEEE21__push_back_slow_pathIRKiEEvOT_, symObjAddr: 0x67D0, symBinAddr: 0x10000A0B0, symSize: 0xE0 }
  - { offsetInCU: 0x11AF7, offset: 0x11AF7, size: 0x8, addend: 0x0, symName: __ZNSt3__116allocator_traitsINS_9allocatorIiEEE9constructB7v160006IiJRKiEvEEvRS2_PT_DpOT0_, symObjAddr: 0x68B0, symBinAddr: 0x10000A190, symSize: 0x30 }
  - { offsetInCU: 0x11B4E, offset: 0x11B4E, size: 0x8, addend: 0x0, symName: __ZNSt3__19allocatorIiE9constructB7v160006IiJRKiEEEvPT_DpOT0_, symObjAddr: 0x68E0, symBinAddr: 0x10000A1C0, symSize: 0x20 }
  - { offsetInCU: 0x11BA4, offset: 0x11BA4, size: 0x8, addend: 0x0, symName: __ZNKSt3__16vectorIiNS_9allocatorIiEEE11__recommendB7v160006Em, symObjAddr: 0x6900, symBinAddr: 0x10000A1E0, symSize: 0xA0 }
  - { offsetInCU: 0x11BF9, offset: 0x11BF9, size: 0x8, addend: 0x0, symName: __ZNSt3__114__split_bufferIiRNS_9allocatorIiEEEC1EmmS3_, symObjAddr: 0x69A0, symBinAddr: 0x10000A280, symSize: 0x40 }
  - { offsetInCU: 0x11C4F, offset: 0x11C4F, size: 0x8, addend: 0x0, symName: __ZNSt3__114__split_bufferIiRNS_9allocatorIiEEED1Ev, symObjAddr: 0x6B10, symBinAddr: 0x10000A3F0, symSize: 0x20 }
  - { offsetInCU: 0x11C7B, offset: 0x11C7B, size: 0x8, addend: 0x0, symName: __ZNSt3__114__split_bufferIiRNS_9allocatorIiEEEC2EmmS3_, symObjAddr: 0x6B30, symBinAddr: 0x10000A410, symSize: 0xD0 }
  - { offsetInCU: 0x11CEF, offset: 0x11CEF, size: 0x8, addend: 0x0, symName: __ZNSt3__117__compressed_pairIPiRNS_9allocatorIiEEEC1B7v160006IDnS4_EEOT_OT0_, symObjAddr: 0x6C00, symBinAddr: 0x10000A4E0, symSize: 0x30 }
  - { offsetInCU: 0x11D47, offset: 0x11D47, size: 0x8, addend: 0x0, symName: __ZNSt3__114__split_bufferIiRNS_9allocatorIiEEE7__allocB7v160006Ev, symObjAddr: 0x6C30, symBinAddr: 0x10000A510, symSize: 0x20 }
  - { offsetInCU: 0x11D6D, offset: 0x11D6D, size: 0x8, addend: 0x0, symName: __ZNSt3__114__split_bufferIiRNS_9allocatorIiEEE9__end_capB7v160006Ev, symObjAddr: 0x6C50, symBinAddr: 0x10000A530, symSize: 0x20 }
  - { offsetInCU: 0x11D93, offset: 0x11D93, size: 0x8, addend: 0x0, symName: __ZNSt3__117__compressed_pairIPiRNS_9allocatorIiEEEC2B7v160006IDnS4_EEOT_OT0_, symObjAddr: 0x6C70, symBinAddr: 0x10000A550, symSize: 0x40 }
  - { offsetInCU: 0x11DEB, offset: 0x11DEB, size: 0x8, addend: 0x0, symName: __ZNSt3__122__compressed_pair_elemIRNS_9allocatorIiEELi1ELb0EEC2B7v160006IS3_vEEOT_, symObjAddr: 0x6CB0, symBinAddr: 0x10000A590, symSize: 0x20 }
  - { offsetInCU: 0x11E2D, offset: 0x11E2D, size: 0x8, addend: 0x0, symName: __ZNSt3__117__compressed_pairIPiRNS_9allocatorIiEEE6secondB7v160006Ev, symObjAddr: 0x6CD0, symBinAddr: 0x10000A5B0, symSize: 0x20 }
  - { offsetInCU: 0x11E53, offset: 0x11E53, size: 0x8, addend: 0x0, symName: __ZNSt3__122__compressed_pair_elemIRNS_9allocatorIiEELi1ELb0EE5__getB7v160006Ev, symObjAddr: 0x6CF0, symBinAddr: 0x10000A5D0, symSize: 0x20 }
  - { offsetInCU: 0x11E79, offset: 0x11E79, size: 0x8, addend: 0x0, symName: __ZNSt3__117__compressed_pairIPiRNS_9allocatorIiEEE5firstB7v160006Ev, symObjAddr: 0x6D10, symBinAddr: 0x10000A5F0, symSize: 0x20 }
  - { offsetInCU: 0x11EC3, offset: 0x11EC3, size: 0x8, addend: 0x0, symName: __ZNKSt3__111__move_loopINS_17_ClassicAlgPolicyEEclB7v160006INS_16reverse_iteratorIPiEES6_S6_EENS_4pairIT_T1_EES8_T0_S9_, symObjAddr: 0x7330, symBinAddr: 0x10000AC10, symSize: 0xA0 }
  - { offsetInCU: 0x11F34, offset: 0x11F34, size: 0x8, addend: 0x0, symName: __ZNSt3__18_IterOpsINS_17_ClassicAlgPolicyEE11__iter_moveB7v160006IRNS_16reverse_iteratorIPiEEEENS_9enable_ifIXsr12is_referenceIDTdeclsr3stdE7declvalIRT_EEEEE5valueEDTclsr3stdE4movedeclsr3stdE7declvalISA_EEEEE4typeEOS9_, symObjAddr: 0x7520, symBinAddr: 0x10000AE00, symSize: 0x20 }
  - { offsetInCU: 0x11F60, offset: 0x11F60, size: 0x8, addend: 0x0, symName: __ZNSt3__18_IterOpsINS_17_ClassicAlgPolicyEE25__validate_iter_referenceB7v160006IRNS_16reverse_iteratorIPiEEEEvv, symObjAddr: 0x7540, symBinAddr: 0x10000AE20, symSize: 0x10 }
  - { offsetInCU: 0x11F7E, offset: 0x11F7E, size: 0x8, addend: 0x0, symName: __ZNSt3__118__unwrap_iter_implINS_16reverse_iteratorIPiEELb0EE8__unwrapB7v160006ES3_, symObjAddr: 0x7550, symBinAddr: 0x10000AE30, symSize: 0x20 }
  - { offsetInCU: 0x11FA1, offset: 0x11FA1, size: 0x8, addend: 0x0, symName: __ZNSt3__14pairINS_16reverse_iteratorIPiEES3_EC1B7v160006ERKS3_S6_, symObjAddr: 0x7570, symBinAddr: 0x10000AE50, symSize: 0x30 }
  - { offsetInCU: 0x11FE7, offset: 0x11FE7, size: 0x8, addend: 0x0, symName: __ZNSt3__14pairINS_16reverse_iteratorIPiEES3_EC2B7v160006ERKS3_S6_, symObjAddr: 0x75A0, symBinAddr: 0x10000AE80, symSize: 0x40 }
  - { offsetInCU: 0x1202D, offset: 0x1202D, size: 0x8, addend: 0x0, symName: __ZNSt3__118__unwrap_iter_implINS_16reverse_iteratorIPiEELb0EE8__rewrapB7v160006ES3_S3_, symObjAddr: 0x75E0, symBinAddr: 0x10000AEC0, symSize: 0x30 }
  - { offsetInCU: 0x1205B, offset: 0x1205B, size: 0x8, addend: 0x0, symName: __ZNSt3__114__split_bufferIiRNS_9allocatorIiEEED2Ev, symObjAddr: 0x7610, symBinAddr: 0x10000AEF0, symSize: 0x60 }
  - { offsetInCU: 0x12087, offset: 0x12087, size: 0x8, addend: 0x0, symName: __ZNSt3__114__split_bufferIiRNS_9allocatorIiEEE5clearB7v160006Ev, symObjAddr: 0x7670, symBinAddr: 0x10000AF50, symSize: 0x20 }
  - { offsetInCU: 0x120AD, offset: 0x120AD, size: 0x8, addend: 0x0, symName: __ZNKSt3__114__split_bufferIiRNS_9allocatorIiEEE8capacityB7v160006Ev, symObjAddr: 0x7690, symBinAddr: 0x10000AF70, symSize: 0x30 }
  - { offsetInCU: 0x120D3, offset: 0x120D3, size: 0x8, addend: 0x0, symName: __ZNSt3__114__split_bufferIiRNS_9allocatorIiEEE17__destruct_at_endB7v160006EPi, symObjAddr: 0x76C0, symBinAddr: 0x10000AFA0, symSize: 0x30 }
  - { offsetInCU: 0x12107, offset: 0x12107, size: 0x8, addend: 0x0, symName: __ZNSt3__114__split_bufferIiRNS_9allocatorIiEEE17__destruct_at_endB7v160006EPiNS_17integral_constantIbLb0EEE, symObjAddr: 0x76F0, symBinAddr: 0x10000AFD0, symSize: 0x80 }
  - { offsetInCU: 0x12148, offset: 0x12148, size: 0x8, addend: 0x0, symName: __ZNKSt3__114__split_bufferIiRNS_9allocatorIiEEE9__end_capB7v160006Ev, symObjAddr: 0x7770, symBinAddr: 0x10000B050, symSize: 0x20 }
  - { offsetInCU: 0x1216E, offset: 0x1216E, size: 0x8, addend: 0x0, symName: __ZNKSt3__117__compressed_pairIPiRNS_9allocatorIiEEE5firstB7v160006Ev, symObjAddr: 0x7790, symBinAddr: 0x10000B070, symSize: 0x20 }
  - { offsetInCU: 0x12194, offset: 0x12194, size: 0x8, addend: 0x0, symName: __ZNKSt3__16vectorIiNS_9allocatorIiEEE20__throw_out_of_rangeB7v160006Ev, symObjAddr: 0x77B0, symBinAddr: 0x10000B090, symSize: 0x20 }
  - { offsetInCU: 0x121BA, offset: 0x121BA, size: 0x8, addend: 0x0, symName: __ZNSt12out_of_rangeC1B7v160006EPKc, symObjAddr: 0x7840, symBinAddr: 0x10000B120, symSize: 0x30 }
  - { offsetInCU: 0x121F2, offset: 0x121F2, size: 0x8, addend: 0x0, symName: __ZNSt12out_of_rangeC2B7v160006EPKc, symObjAddr: 0x7870, symBinAddr: 0x10000B150, symSize: 0x40 }
  - { offsetInCU: 0x1222A, offset: 0x1222A, size: 0x8, addend: 0x0, symName: __ZNSt3__16vectorI12traceprofileNS_9allocatorIS1_EEEC2B7v160006Ev, symObjAddr: 0x78B0, symBinAddr: 0x10000B190, symSize: 0x50 }
  - { offsetInCU: 0x12254, offset: 0x12254, size: 0x8, addend: 0x0, symName: __ZNSt3__117__compressed_pairIP12traceprofileNS_9allocatorIS1_EEEC1B7v160006IDnNS_18__default_init_tagEEEOT_OT0_, symObjAddr: 0x7900, symBinAddr: 0x10000B1E0, symSize: 0x30 }
  - { offsetInCU: 0x122AC, offset: 0x122AC, size: 0x8, addend: 0x0, symName: __ZNSt3__117__compressed_pairIP12traceprofileNS_9allocatorIS1_EEEC2B7v160006IDnNS_18__default_init_tagEEEOT_OT0_, symObjAddr: 0x7940, symBinAddr: 0x10000B220, symSize: 0x40 }
  - { offsetInCU: 0x12304, offset: 0x12304, size: 0x8, addend: 0x0, symName: __ZNSt3__122__compressed_pair_elemINS_9allocatorI12traceprofileEELi1ELb1EEC2B7v160006ENS_18__default_init_tagE, symObjAddr: 0x7980, symBinAddr: 0x10000B260, symSize: 0x20 }
  - { offsetInCU: 0x12339, offset: 0x12339, size: 0x8, addend: 0x0, symName: __ZNSt3__19allocatorI12traceprofileEC2B7v160006Ev, symObjAddr: 0x79A0, symBinAddr: 0x10000B280, symSize: 0x20 }
  - { offsetInCU: 0x12363, offset: 0x12363, size: 0x8, addend: 0x0, symName: __ZNSt3__116__non_trivial_ifILb1ENS_9allocatorI12traceprofileEEEC2B7v160006Ev, symObjAddr: 0x79C0, symBinAddr: 0x10000B2A0, symSize: 0x10 }
  - { offsetInCU: 0x1238D, offset: 0x1238D, size: 0x8, addend: 0x0, symName: __ZNSt3__16vectorI12traceprofileNS_9allocatorIS1_EEED2B7v160006Ev, symObjAddr: 0x79D0, symBinAddr: 0x10000B2B0, symSize: 0x30 }
  - { offsetInCU: 0x123B7, offset: 0x123B7, size: 0x8, addend: 0x0, symName: __ZNSt3__16vectorI12traceprofileNS_9allocatorIS1_EEE16__destroy_vectorC1ERS4_, symObjAddr: 0x7A00, symBinAddr: 0x10000B2E0, symSize: 0x30 }
  - { offsetInCU: 0x123F0, offset: 0x123F0, size: 0x8, addend: 0x0, symName: __ZNSt3__16vectorI12traceprofileNS_9allocatorIS1_EEE16__destroy_vectorclB7v160006Ev, symObjAddr: 0x7A30, symBinAddr: 0x10000B310, symSize: 0x90 }
  - { offsetInCU: 0x12416, offset: 0x12416, size: 0x8, addend: 0x0, symName: __ZNSt3__16vectorI12traceprofileNS_9allocatorIS1_EEE16__destroy_vectorC2ERS4_, symObjAddr: 0x7AC0, symBinAddr: 0x10000B3A0, symSize: 0x20 }
  - { offsetInCU: 0x1244F, offset: 0x1244F, size: 0x8, addend: 0x0, symName: __ZNSt3__16vectorI12traceprofileNS_9allocatorIS1_EEE7__clearB7v160006Ev, symObjAddr: 0x7AF0, symBinAddr: 0x10000B3D0, symSize: 0x20 }
  - { offsetInCU: 0x12475, offset: 0x12475, size: 0x8, addend: 0x0, symName: __ZNSt3__16vectorI12traceprofileNS_9allocatorIS1_EEE22__base_destruct_at_endB7v160006EPS1_, symObjAddr: 0x7B10, symBinAddr: 0x10000B3F0, symSize: 0x90 }
  - { offsetInCU: 0x124B9, offset: 0x124B9, size: 0x8, addend: 0x0, symName: __ZNSt3__112basic_stringIcNS_11char_traitsIcEENS_9allocatorIcEEEC2B7v160006IDnEEPKc, symObjAddr: 0x7BA0, symBinAddr: 0x10000B480, symSize: 0x60 }
  - { offsetInCU: 0x124F7, offset: 0x124F7, size: 0x8, addend: 0x0, symName: __ZNKSt3__16vectorI12traceprofileNS_9allocatorIS1_EEE20__throw_out_of_rangeB7v160006Ev, symObjAddr: 0x7C00, symBinAddr: 0x10000B4E0, symSize: 0x18 }
...
